
HOST_KM.elf:     file format elf32-littleriscv
HOST_KM.elf
architecture: riscv:rv32, flags 0x00000112:
EXEC_P, HAS_SYMS, D_PAGED
start address 0x00000000

Program Header:
0x70000003 off    0x00018d02 vaddr 0x00000000 paddr 0x00000000 align 2**0
         filesz 0x00000051 memsz 0x00000000 flags r--
    LOAD off    0x00001000 vaddr 0x00000000 paddr 0x00000000 align 2**12
         filesz 0x00000004 memsz 0x00000004 flags r-x
    LOAD off    0x00002000 vaddr 0x20000000 paddr 0x00000004 align 2**12
         filesz 0x00000ae4 memsz 0x00000ae4 flags r-x
    LOAD off    0x00002ae8 vaddr 0x00000ae8 paddr 0x00000ae8 align 2**12
         filesz 0x0000257c memsz 0x0000257c flags r-x
    LOAD off    0x00000ae4 vaddr 0x20000ae4 paddr 0x00003064 align 2**12
         filesz 0x00000000 memsz 0x00000004 flags rw-
    LOAD off    0x00000ae8 vaddr 0x20000ae8 paddr 0x00003064 align 2**12
         filesz 0x00000000 memsz 0x00001080 flags rw-

Sections:
Idx Name          Size      VMA       LMA       File off  Algn
  0 .init         00000004  00000000  00000000  00001000  2**1
                  CONTENTS, ALLOC, LOAD, READONLY, CODE
  1 .highcode_initlalign 00000000  00000004  00000004  00005064  2**0
                  CONTENTS
  2 .highcode_init 00000204  20000000  00000004  00002000  2**1
                  CONTENTS, ALLOC, LOAD, READONLY, CODE
  3 .highcodelalign 00000000  00000208  00000208  00005064  2**0
                  CONTENTS
  4 .highcode     000008e0  20000204  00000208  00002204  2**1
                  CONTENTS, ALLOC, LOAD, READONLY, CODE
  5 .text         0000257c  00000ae8  00000ae8  00002ae8  2**2
                  CONTENTS, ALLOC, LOAD, READONLY, CODE
  6 .fini         00000000  00003064  00003064  00005064  2**0
                  CONTENTS, ALLOC, LOAD, CODE
  7 .dlalign      00000000  00003064  00003064  00005064  2**0
                  CONTENTS
  8 .data         00000004  20000ae4  00003064  00005ae4  2**0
                  ALLOC
  9 .bss          00001080  20000ae8  00003064  00005ae8  2**2
                  ALLOC
 10 .stack        00000000  20020000  20020000  00005064  2**0
                  CONTENTS
 11 .debug_info   00006257  00000000  00000000  00005064  2**0
                  CONTENTS, READONLY, DEBUGGING, OCTETS
 12 .debug_abbrev 00001571  00000000  00000000  0000b2bb  2**0
                  CONTENTS, READONLY, DEBUGGING, OCTETS
 13 .debug_loclists 00002e40  00000000  00000000  0000c82c  2**0
                  CONTENTS, READONLY, DEBUGGING, OCTETS
 14 .debug_aranges 00000430  00000000  00000000  0000f670  2**3
                  CONTENTS, READONLY, DEBUGGING, OCTETS
 15 .debug_rnglists 000004d3  00000000  00000000  0000faa0  2**0
                  CONTENTS, READONLY, DEBUGGING, OCTETS
 16 .debug_line   00006d2c  00000000  00000000  0000ff73  2**0
                  CONTENTS, READONLY, DEBUGGING, OCTETS
 17 .debug_str    00001a03  00000000  00000000  00016c9f  2**0
                  CONTENTS, READONLY, DEBUGGING, OCTETS
 18 .debug_line_str 000005fc  00000000  00000000  000186a2  2**0
                  CONTENTS, READONLY, DEBUGGING, OCTETS
 19 .comment      00000064  00000000  00000000  00018c9e  2**0
                  CONTENTS, READONLY
 20 .riscv.attributes 00000051  00000000  00000000  00018d02  2**0
                  CONTENTS, READONLY
 21 .debug_frame  00000b0c  00000000  00000000  00018d54  2**2
                  CONTENTS, READONLY, DEBUGGING, OCTETS
SYMBOL TABLE:
00000000 l    d  .init	00000000 .init
00000004 l    d  .highcode_initlalign	00000000 .highcode_initlalign
20000000 l    d  .highcode_init	00000000 .highcode_init
00000208 l    d  .highcodelalign	00000000 .highcodelalign
20000204 l    d  .highcode	00000000 .highcode
00000ae8 l    d  .text	00000000 .text
00003064 l    d  .fini	00000000 .fini
00003064 l    d  .dlalign	00000000 .dlalign
20000ae4 l    d  .data	00000000 .data
20000ae8 l    d  .bss	00000000 .bss
20020000 l    d  .stack	00000000 .stack
00000000 l    d  .debug_info	00000000 .debug_info
00000000 l    d  .debug_abbrev	00000000 .debug_abbrev
00000000 l    d  .debug_loclists	00000000 .debug_loclists
00000000 l    d  .debug_aranges	00000000 .debug_aranges
00000000 l    d  .debug_rnglists	00000000 .debug_rnglists
00000000 l    d  .debug_line	00000000 .debug_line
00000000 l    d  .debug_str	00000000 .debug_str
00000000 l    d  .debug_line_str	00000000 .debug_line_str
00000000 l    d  .comment	00000000 .comment
00000000 l    d  .riscv.attributes	00000000 .riscv.attributes
00000000 l    d  .debug_frame	00000000 .debug_frame
00000000 l    df *ABS*	00000000 startup_CH585.o
200000a0 l       .highcode_init	00000000 USB2_IRQHandler
20000150 l       .highcode_init	00000000 __highcode_init
00000000 l    df *ABS*	00000000 CH58x_sys.c
00000000 l    df *ABS*	00000000 app_km.c
00000000 l    df *ABS*	00000000 ISP585.c
20000720 l       .highcode	00000000 .loop18
2000072e l       .highcode	00000000 .loop29
2000073c l       .highcode	00000000 .loop40
200009c8 l       .highcode	00000000 .loop411
00000000 l    df *ABS*	00000000 save-restore.o
00000000 l    df *ABS*	00000000 lib_a-memcpy-asm.o
00000000 l    df *ABS*	00000000 lib_a-memset.o
00000000 l    df *ABS*	00000000 ch585_usbhs_host.c
00000000 l    df *ABS*	00000000 main.c
00000000 l    df *ABS*	00000000 usb_host_hid.c
00000000 l    df *ABS*	00000000 usb_host_hub.c
00000000 l    df *ABS*	00000000 CH58x_gpio.c
00000000 l    df *ABS*	00000000 CH58x_timer3.c
00000000 l    df *ABS*	00000000 CH58x_uart0.c
00000000 l    df *ABS*	00000000 wchprintf.c
00000000 l    df *ABS*	00000000 lib_a-memchr.o
00000000 l    df *ABS*	00000000 lib_a-strlen.o
000029ce  w    F .text	00000004 printDouble
2000073c g     F .highcode	0000000e FLASH_ROM_OUT
200000a0  w      .highcode_init	00000000 NFC_IRQHandler
000029d2  w    F .text	0000035a print
00001ef8 g     F .text	0000004e USBHSH_EnableRootHubPort
00002d2c  w    F .text	00000024 printf
200012e8 g       .data	00000000 __global_pointer$
00000b32 g     F .text	00000028 .hidden __riscv_save_8
200006ce g     F .highcode	00000016 mDelayuS
20000650  w    F .highcode	0000007e HardFault_Handler
200000a0  w      .highcode_init	00000000 GPIOB_IRQHandler
000028e2  w    F .text	000000e8 printInt
0000276a g     F .text	00000028 UART0_BaudRateCfg
00000b7e g     F .text	0000000c .hidden __riscv_restore_3
200000a0  w      .highcode_init	00000000 GPIOA_IRQHandler
200000a0  w      .highcode_init	00000000 SysTick_Handler
0000231c g     F .text	0000005e USBHSH_GetStrDescr
00000b6a g     F .text	00000020 .hidden __riscv_restore_10
000023f0 g     F .text	0000004c USBHSH_GetEndpData
200000a0  w      .highcode_init	00000000 NMI_Handler
00000b32 g     F .text	00000028 .hidden __riscv_save_11
200000a0  w      .highcode_init	00000000 UART1_IRQHandler
20000ae8 g       .bss	00000000 _sbss
20000af0 g     O .bss	00000ba4 HostCtl
2000072e g     F .highcode	0000000e FLASH_ROM_IN
00000c40 g     F .text	00000042 USBH_AnalyseType
00000c02 g     F .text	00000020 USBH_SetUsbAddress
00000b7e g     F .text	0000000c .hidden __riscv_restore_2
2000063c g     F .highcode	00000014 SYS_RecoverIrq
200000a0  w      .highcode_init	00000000 UART0_IRQHandler
00001e98 g     F .text	00000060 USBHSH_ResetRootHubPort
00000b8a g     F .text	00000016 memcpy
0000250a g     F .text	00000036 HID_GetHidDesr
000029ca  w    F .text	00000004 printLongLongInt
00002540 g     F .text	00000032 HID_SetReport
00002d50 g     F .text	00000048 puts
00000bd2 g     F .text	00000014 USBH_EnableRootHubPort
00001db8 g     F .text	0000007e USBHS_Host_Init
00000004 g       .init	00000000 _einit
200000a2 g     F .highcode_init	000000ae highcode_init
00000b2a g     F .text	00000030 .hidden __riscv_save_12
200000a0  w      .highcode_init	00000000 BB_IRQHandler
200007ca g     F .highcode	00000318 FLASH_EEPROM_CMD
200000a0  w      .highcode_init	00000000 Break_Point_Handler
00000b6a g     F .text	00000020 .hidden __riscv_restore_11
000022ba g     F .text	00000062 USBHSH_GetConfigDescr
00000cae g     F .text	0000005c USBH_GetHidData
00001e6e g     F .text	0000002a USBHSH_CheckRootHubPortSpeed
00000b5a g     F .text	0000000c .hidden __riscv_save_1
200000a0  w      .highcode_init	00000000 TMR0_IRQHandler
00000b7e g     F .text	0000000c .hidden __riscv_restore_0
00000b40 g     F .text	0000001a .hidden __riscv_save_7
2000070e g     F .highcode	00000012 FLASH_ROM_BEG
00000bb0 g     F .text	00000014 USBH_CheckRootHubPortStatus
200006e4 g     F .highcode	00000020 mDelaymS
200000a0  w      .highcode_init	00000000 Ecall_M_Mode_Handler
000023d6 g     F .text	0000001a USBHSH_ClearEndpStall
20000000 g       .highcode_init	00000000 _highcode_init_vma_start
20001ad4 g     O .bss	00000012 DevDesc_Buf
00000b74 g     F .text	00000016 .hidden __riscv_restore_5
2000074a g     F .highcode	00000048 FLASH_ROM_ADDR
00000004 g       .highcode_initlalign	00000000 _highcode_init_lma
0000237a g     F .text	00000040 USBHSH_SetUsbAddress
00000b74 g     F .text	00000016 .hidden __riscv_restore_6
200000a0  w      .highcode_init	00000000 RTC_IRQHandler
20001b68 g       .bss	00000000 _ebss
00002276 g     F .text	00000044 USBHSH_GetDeviceDescr
00001338 g     F .text	000000f8 KM_DealHidReportDesc
200000a0  w      .highcode_init	00000000 LED_IRQHandler
000025a4 g     F .text	0000002c HUB_SetPortFeature
20000792 g     F .highcode	00000038 FLASH_ROM_WAIT
00000b32 g     F .text	00000028 .hidden __riscv_save_9
00000b40 g     F .text	0000001a .hidden __riscv_save_4
00000be6 g     F .text	0000001c USBH_GetDeviceDescr
20000000 g       .highcode_init	00000000 _vector_base
200000a0  w      .highcode_init	00000000 UART2_IRQHandler
20001694 g     O .bss	0000003e RootHubDev
00000d7a g     F .text	000001da USBH_EnumRootDevice
00002d98 g     F .text	00000018 memchr
00000b5a g     F .text	0000000c .hidden __riscv_save_3
00001182 g     F .text	000001b6 KM_AnalyzeHidReportDesc
00002480 g     F .text	00000026 DebugInit
00000000 g       .init	00000000 _start
00000c82 g     F .text	00000014 USBH_SetUsbConfig
200016d4 g     O .bss	00000400 Com_Buf
00002802  w    F .text	000000e0 prints
0000177a g     F .text	00000092 KB_AnalyzeKeyValue
200000a0  w      .highcode_init	00000000 ADC_IRQHandler
20000204 g       .highcode	00000000 _highcode_vma_start
20000aec g     O .bss	00000004 gs_machine_mode_func
000018a0 g     F .text	00000208 USBH_EnumHidDevice
200000a0  w      .highcode_init	00000000 TMR2_IRQHandler
000020ba g     F .text	000001bc USBHSH_CtrlTransfer
00002792 g     F .text	00000028 UART0_DefInit
20000ae4 g       .data	00000000 _data_vma
200003a6 g     F .highcode	000001a8 SetSysClock
200000a0  w      .highcode_init	00000000 USB_IRQHandler
00001aa8 g     F .text	00000310 USBH_MainDeal
00000c22 g     F .text	0000001e USBH_GetConfigDescr
00000b32 g     F .text	00000028 .hidden __riscv_save_10
00000b74 g     F .text	00000016 .hidden __riscv_restore_4
00000b6a g     F .text	00000020 .hidden __riscv_restore_8
00000b40 g     F .text	0000001a .hidden __riscv_save_6
000026a0 g     F .text	0000001c GPIOPinRemap
20001b28 g     O .bss	00000040 RxBuffer
20000386 g     F .highcode	00000020 MachineMode_Call_IRQ
200000a0  w      .highcode_init	00000000 I2C_IRQHandler
00000ba0 g     F .text	00000010 memset
00000b6a g     F .text	00000020 .hidden __riscv_restore_9
00000b74 g     F .text	00000016 .hidden __riscv_restore_7
000024a6 g     F .text	00000064 main
20001ae8 g     O .bss	00000040 TxBuffer
00000208 g       .highcodelalign	00000000 _highcode_lma
000027ba  w    F .text	00000048 printchar
200000a0  w      .highcode_init	00000000 LLE_IRQHandler
00000000 g       .init	00000000 _sinit
00000f54 g     F .text	0000022e KM_AnalyzeConfigDesc
00002752 g     F .text	00000018 TMR3_TimerInit
00000d66 g     F .text	00000014 USBH_ClearEndpStall
200000a0  w      .highcode_init	00000000 WDOG_BAT_IRQHandler
200000a0  w      .highcode_init	00000000 Ecall_U_Mode_Handler
0000243c g     F .text	00000044 USBHSH_SendEndpData
20000204 g     F .highcode	00000182 TMR3_IRQHandler
20020000 g       .stack	00000000 _eusrstack
00000b5a g     F .text	0000000c .hidden __riscv_save_2
20000ae8 g     O .bss	00000004 chip_info
200000a0  w      .highcode_init	00000000 SW_Handler
000025d0 g     F .text	00000052 HUB_GetClassDevDescr
00002622 g     F .text	0000007e GPIOA_ModeCfg
00001430 g     F .text	000000b8 HUB_AnalyzeConfigDesc
20000620 g     F .highcode	0000001c SYS_DisableAllIrq
000026bc g     F .text	00000074 GetSysClock
00000b40 g     F .text	0000001a .hidden __riscv_save_5
00002730 g     F .text	00000022 _write
20000ae8 g       .data	00000000 _edata
00000bc4 g     F .text	0000000e USBH_ResetRootHubPort
200000a0  w      .highcode_init	00000000 SPI0_IRQHandler
20001b68 g       .bss	00000000 _end
200000a0  w      .highcode_init	00000000 USB2_HOST_IRQHandler
20000ae4 g       .highcode	00000000 _highcode_vma_end
00003064 g       .dlalign	00000000 _data_lma
00002572 g     F .text	00000032 HID_SetIdle
20000704 g     F .highcode	0000000a __wrap_memcpy
00000c96 g     F .text	00000018 USBH_GetStrDescr
00001f46 g     F .text	00000174 USBHSH_Transact
0000180c g     F .text	00000094 KB_SetReport
200000a0  w      .highcode_init	00000000 PWMX_SPI1_IRQHandler
00000b66 g     F .text	00000024 .hidden __riscv_restore_12
00000ae8  w      .text	00000000 handle_reset
00000b5a g     F .text	0000000c .hidden __riscv_save_0
000014e8 g     F .text	00000292 USBH_EnumHubDevice
00000d0a g     F .text	0000005c USBH_SendHidData
00002db0 g     F .text	00000010 strlen
200000a0  w      .highcode_init	00000000 UART3_IRQHandler
20000720 g     F .highcode	0000000e FLASH_ROM_END
00001e36 g     F .text	00000038 USBHSH_CheckRootHubPortStatus
00000b7e g     F .text	0000000c .hidden __riscv_restore_1
200000a0  w      .highcode_init	00000000 USB2_DEVICE_IRQHandler
200000a0  w      .highcode_init	00000000 TMR1_IRQHandler
000023ba g     F .text	0000001c USBHSH_SetUsbConfig
2000054e g     F .highcode	00000070 MachineMode_Call
200005be g     F .highcode	00000062 SYS_ResetExecute
20000204 g       .highcode_init	00000000 _highcode_init_vma_end



Disassembly of section .init:

00000000 <_sinit>:
   0:	2e90006f          	j	ae8 <handle_reset>

Disassembly of section .highcode_init:

20000000 <_highcode_init_vma_start>:
	...
20000008:	200000a0          	.word	0x200000a0
2000000c:	20000650          	.word	0x20000650
20000010:	f3f9bda9          	.word	0xf3f9bda9
20000014:	200000a0          	.word	0x200000a0
	...
20000020:	200000a0          	.word	0x200000a0
20000024:	200000a0          	.word	0x200000a0
	...
20000030:	200000a0          	.word	0x200000a0
20000034:	00000000          	.word	0x00000000
20000038:	200000a0          	.word	0x200000a0
2000003c:	00000000          	.word	0x00000000
20000040:	200000a0          	.word	0x200000a0
20000044:	200000a0          	.word	0x200000a0
20000048:	200000a0          	.word	0x200000a0
2000004c:	200000a0          	.word	0x200000a0
20000050:	200000a0          	.word	0x200000a0
20000054:	200000a0          	.word	0x200000a0
20000058:	200000a0          	.word	0x200000a0
2000005c:	00000000          	.word	0x00000000
20000060:	200000a0          	.word	0x200000a0
20000064:	200000a0          	.word	0x200000a0
20000068:	200000a0          	.word	0x200000a0
2000006c:	200000a0          	.word	0x200000a0
20000070:	200000a0          	.word	0x200000a0
20000074:	200000a0          	.word	0x200000a0
20000078:	200000a0          	.word	0x200000a0
2000007c:	200000a0          	.word	0x200000a0
20000080:	20000204          	.word	0x20000204
20000084:	200000a0          	.word	0x200000a0
20000088:	200000a0          	.word	0x200000a0
2000008c:	200000a0          	.word	0x200000a0
20000090:	200000a0          	.word	0x200000a0
20000094:	200000a0          	.word	0x200000a0
20000098:	200000a0          	.word	0x200000a0
2000009c:	200000a0          	.word	0x200000a0

200000a0 <ADC_IRQHandler>:
200000a0:	a001                	j	200000a0 <ADC_IRQHandler>

200000a2 <highcode_init>:
200000a2:	400017b7          	lui	a5,0x40001
200000a6:	4b98                	lw	a4,16(a5)
200000a8:	1141                	addi	sp,sp,-16
200000aa:	01076713          	ori	a4,a4,16
200000ae:	cb98                	sw	a4,16(a5)
200000b0:	2b98                	lbu	a4,16(a5)
200000b2:	0fe77713          	andi	a4,a4,254
200000b6:	ab98                	sb	a4,16(a5)
200000b8:	08800713          	li	a4,136
200000bc:	80073773          	csrrc	a4,0x800,a4
200000c0:	08877713          	andi	a4,a4,136
200000c4:	c63a                	sw	a4,12(sp)
200000c6:	0000100f          	fence.i
200000ca:	05700713          	li	a4,87
200000ce:	04e78023          	sb	a4,64(a5) # 40001040 <_eusrstack+0x1ffe1040>
200000d2:	fa800713          	li	a4,-88
200000d6:	04e78023          	sb	a4,64(a5)
200000da:	0000100f          	fence.i
200000de:	47b8                	lw	a4,72(a5)
200000e0:	060006b7          	lui	a3,0x6000
200000e4:	0695                	addi	a3,a3,5 # 6000005 <_data_lma+0x5ffcfa1>
200000e6:	8f55                	or	a4,a4,a3
200000e8:	c7b8                	sw	a4,72(a5)
200000ea:	04b7c703          	lbu	a4,75(a5)
200000ee:	0df77713          	andi	a4,a4,223
200000f2:	04e785a3          	sb	a4,75(a5)
200000f6:	27b8                	lbu	a4,10(a5)
200000f8:	01276713          	ori	a4,a4,18
200000fc:	a7b8                	sb	a4,10(a5)
200000fe:	14500713          	li	a4,325
20000102:	a79a                	sh	a4,8(a5)
20000104:	40002737          	lui	a4,0x40002
20000108:	80574683          	lbu	a3,-2043(a4) # 40001805 <_eusrstack+0x1ffe1805>
2000010c:	0ef6f693          	andi	a3,a3,239
20000110:	80d702a3          	sb	a3,-2043(a4)
20000114:	4689                	li	a3,2
20000116:	80d703a3          	sb	a3,-2041(a4)
2000011a:	04e7c703          	lbu	a4,78(a5)
2000011e:	0fc77713          	andi	a4,a4,252
20000122:	00176713          	ori	a4,a4,1
20000126:	04e78723          	sb	a4,78(a5)
2000012a:	02f7c703          	lbu	a4,47(a5)
2000012e:	00276713          	ori	a4,a4,2
20000132:	02e787a3          	sb	a4,47(a5)
20000136:	2b98                	lbu	a4,16(a5)
20000138:	00176713          	ori	a4,a4,1
2000013c:	ab98                	sb	a4,16(a5)
2000013e:	04078023          	sb	zero,64(a5)
20000142:	47b2                	lw	a5,12(sp)
20000144:	8007a7f3          	csrrs	a5,0x800,a5
20000148:	0000100f          	fence.i
2000014c:	0141                	addi	sp,sp,16
2000014e:	8082                	ret

20000150 <__highcode_init>:
20000150:	f53ff0ef          	jal	ra,200000a2 <highcode_init>
20000154:	20800513          	li	a0,520
20000158:	00000597          	auipc	a1,0x0
2000015c:	0ac58593          	addi	a1,a1,172 # 20000204 <_highcode_init_vma_end>
20000160:	00001617          	auipc	a2,0x1
20000164:	98460613          	addi	a2,a2,-1660 # 20000ae4 <_data_vma>
20000168:	00c5fa63          	bgeu	a1,a2,2000017c <__highcode_init+0x2c>
2000016c:	00052283          	lw	t0,0(a0)
20000170:	0055a023          	sw	t0,0(a1)
20000174:	0511                	addi	a0,a0,4
20000176:	0591                	addi	a1,a1,4
20000178:	fec5eae3          	bltu	a1,a2,2000016c <__highcode_init+0x1c>
2000017c:	e0003517          	auipc	a0,0xe0003
20000180:	ee850513          	addi	a0,a0,-280 # 3064 <_data_lma>
20000184:	00001597          	auipc	a1,0x1
20000188:	96058593          	addi	a1,a1,-1696 # 20000ae4 <_data_vma>
2000018c:	00001617          	auipc	a2,0x1
20000190:	95c60613          	addi	a2,a2,-1700 # 20000ae8 <chip_info>
20000194:	00c5fa63          	bgeu	a1,a2,200001a8 <__highcode_init+0x58>
20000198:	00052283          	lw	t0,0(a0)
2000019c:	0055a023          	sw	t0,0(a1)
200001a0:	0511                	addi	a0,a0,4
200001a2:	0591                	addi	a1,a1,4
200001a4:	fec5eae3          	bltu	a1,a2,20000198 <__highcode_init+0x48>
200001a8:	00001517          	auipc	a0,0x1
200001ac:	94050513          	addi	a0,a0,-1728 # 20000ae8 <chip_info>
200001b0:	00002597          	auipc	a1,0x2
200001b4:	9b858593          	addi	a1,a1,-1608 # 20001b68 <_ebss>
200001b8:	00b57763          	bgeu	a0,a1,200001c6 <__highcode_init+0x76>
200001bc:	00052023          	sw	zero,0(a0)
200001c0:	0511                	addi	a0,a0,4
200001c2:	feb56de3          	bltu	a0,a1,200001bc <__highcode_init+0x6c>
200001c6:	02500293          	li	t0,37
200001ca:	bc029073          	csrw	0xbc0,t0
200001ce:	428d                	li	t0,3
200001d0:	80429073          	csrw	0x804,t0
200001d4:	4285                	li	t0,1
200001d6:	bc129073          	csrw	0xbc1,t0
200001da:	08800293          	li	t0,136
200001de:	30029073          	csrw	mstatus,t0
200001e2:	00000297          	auipc	t0,0x0
200001e6:	e1e28293          	addi	t0,t0,-482 # 20000000 <_highcode_init_vma_start>
200001ea:	0032e293          	ori	t0,t0,3
200001ee:	30529073          	csrw	mtvec,t0
200001f2:	e0002297          	auipc	t0,0xe0002
200001f6:	2b428293          	addi	t0,t0,692 # 24a6 <main>
200001fa:	34129073          	csrw	mepc,t0
200001fe:	30200073          	mret
	...

Disassembly of section .highcode:

20000204 <TMR3_IRQHandler>:
20000204:	40003737          	lui	a4,0x40003
20000208:	c0674783          	lbu	a5,-1018(a4) # 40002c06 <_eusrstack+0x1ffe2c06>
2000020c:	8b85                	andi	a5,a5,1
2000020e:	16078a63          	beqz	a5,20000382 <TMR3_IRQHandler+0x17e>
20000212:	4785                	li	a5,1
20000214:	c0f70323          	sb	a5,-1018(a4)
20000218:	3ac18793          	addi	a5,gp,940 # 20001694 <RootHubDev>
2000021c:	03e78813          	addi	a6,a5,62
20000220:	4889                	li	a7,2
20000222:	430d                	li	t1,3
20000224:	2398                	lbu	a4,0(a5)
20000226:	0ee8ef63          	bltu	a7,a4,20000324 <TMR3_IRQHandler+0x120>
2000022a:	07fd                	addi	a5,a5,31
2000022c:	ff079ce3          	bne	a5,a6,20000224 <TMR3_IRQHandler+0x20>
20000230:	30200073          	mret
20000234:	2398                	lbu	a4,0(a5)
20000236:	00e8ea63          	bltu	a7,a4,2000024a <TMR3_IRQHandler+0x46>
2000023a:	07fd                	addi	a5,a5,31
2000023c:	ff079ce3          	bne	a5,a6,20000234 <TMR3_IRQHandler+0x30>
20000240:	4432                	lw	s0,12(sp)
20000242:	44a2                	lw	s1,8(sp)
20000244:	0141                	addi	sp,sp,16
20000246:	30200073          	mret
2000024a:	3398                	lbu	a4,1(a5)
2000024c:	33d4                	lbu	a3,5(a5)
2000024e:	04671663          	bne	a4,t1,2000029a <TMR3_IRQHandler+0x96>
20000252:	12a00613          	li	a2,298
20000256:	02c686b3          	mul	a3,a3,a2
2000025a:	20001737          	lui	a4,0x20001
2000025e:	af070713          	addi	a4,a4,-1296 # 20000af0 <HostCtl>
20000262:	4601                	li	a2,0
20000264:	9736                	add	a4,a4,a3
20000266:	00074e83          	lbu	t4,0(a4)
2000026a:	fcce88e3          	beq	t4,a2,2000023a <TMR3_IRQHandler+0x36>
2000026e:	00874e03          	lbu	t3,8(a4)
20000272:	85ba                	mv	a1,a4
20000274:	4681                	li	a3,0
20000276:	a809                	j	20000288 <TMR3_IRQHandler+0x84>
20000278:	0255c503          	lbu	a0,37(a1)
2000027c:	0685                	addi	a3,a3,1
2000027e:	0ff6f693          	zext.b	a3,a3
20000282:	0505                	addi	a0,a0,1
20000284:	02a582a3          	sb	a0,37(a1)
20000288:	0585                	addi	a1,a1,1
2000028a:	fede17e3          	bne	t3,a3,20000278 <TMR3_IRQHandler+0x74>
2000028e:	0605                	addi	a2,a2,1
20000290:	0ff67613          	zext.b	a2,a2
20000294:	04a70713          	addi	a4,a4,74
20000298:	bfc9                	j	2000026a <TMR3_IRQHandler+0x66>
2000029a:	4625                	li	a2,9
2000029c:	f8c71fe3          	bne	a4,a2,2000023a <TMR3_IRQHandler+0x36>
200002a0:	12a00593          	li	a1,298
200002a4:	02b686b3          	mul	a3,a3,a1
200002a8:	20001737          	lui	a4,0x20001
200002ac:	af070613          	addi	a2,a4,-1296 # 20000af0 <HostCtl>
200002b0:	0067cf83          	lbu	t6,6(a5)
200002b4:	af070e13          	addi	t3,a4,-1296
200002b8:	4289                	li	t0,2
200002ba:	438d                	li	t2,3
200002bc:	96b2                	add	a3,a3,a2
200002be:	0266c603          	lbu	a2,38(a3)
200002c2:	0605                	addi	a2,a2,1
200002c4:	02c68323          	sb	a2,38(a3)
200002c8:	863e                	mv	a2,a5
200002ca:	4681                	li	a3,0
200002cc:	f6df87e3          	beq	t6,a3,2000023a <TMR3_IRQHandler+0x36>
200002d0:	3278                	lbu	a4,7(a2)
200002d2:	04e2f463          	bgeu	t0,a4,2000031a <TMR3_IRQHandler+0x116>
200002d6:	2618                	lbu	a4,8(a2)
200002d8:	04771163          	bne	a4,t2,2000031a <TMR3_IRQHandler+0x116>
200002dc:	2658                	lbu	a4,12(a2)
200002de:	12a00593          	li	a1,298
200002e2:	4501                	li	a0,0
200002e4:	02b70733          	mul	a4,a4,a1
200002e8:	9772                	add	a4,a4,t3
200002ea:	2304                	lbu	s1,0(a4)
200002ec:	02a48763          	beq	s1,a0,2000031a <TMR3_IRQHandler+0x116>
200002f0:	2700                	lbu	s0,8(a4)
200002f2:	8eba                	mv	t4,a4
200002f4:	4581                	li	a1,0
200002f6:	a809                	j	20000308 <TMR3_IRQHandler+0x104>
200002f8:	025ecf03          	lbu	t5,37(t4)
200002fc:	0585                	addi	a1,a1,1
200002fe:	0ff5f593          	zext.b	a1,a1
20000302:	0f05                	addi	t5,t5,1
20000304:	03ee82a3          	sb	t5,37(t4)
20000308:	0e85                	addi	t4,t4,1
2000030a:	feb417e3          	bne	s0,a1,200002f8 <TMR3_IRQHandler+0xf4>
2000030e:	0505                	addi	a0,a0,1
20000310:	0ff57513          	zext.b	a0,a0
20000314:	04a70713          	addi	a4,a4,74
20000318:	bfd1                	j	200002ec <TMR3_IRQHandler+0xe8>
2000031a:	0685                	addi	a3,a3,1
2000031c:	0ff6f693          	zext.b	a3,a3
20000320:	0619                	addi	a2,a2,6
20000322:	b76d                	j	200002cc <TMR3_IRQHandler+0xc8>
20000324:	3398                	lbu	a4,1(a5)
20000326:	33d4                	lbu	a3,5(a5)
20000328:	04671663          	bne	a4,t1,20000374 <TMR3_IRQHandler+0x170>
2000032c:	12a00613          	li	a2,298
20000330:	02c686b3          	mul	a3,a3,a2
20000334:	20001737          	lui	a4,0x20001
20000338:	af070713          	addi	a4,a4,-1296 # 20000af0 <HostCtl>
2000033c:	4601                	li	a2,0
2000033e:	9736                	add	a4,a4,a3
20000340:	00074e83          	lbu	t4,0(a4)
20000344:	eece83e3          	beq	t4,a2,2000022a <TMR3_IRQHandler+0x26>
20000348:	00874e03          	lbu	t3,8(a4)
2000034c:	85ba                	mv	a1,a4
2000034e:	4681                	li	a3,0
20000350:	a809                	j	20000362 <TMR3_IRQHandler+0x15e>
20000352:	0255c503          	lbu	a0,37(a1)
20000356:	0685                	addi	a3,a3,1
20000358:	0ff6f693          	zext.b	a3,a3
2000035c:	0505                	addi	a0,a0,1
2000035e:	02a582a3          	sb	a0,37(a1)
20000362:	0585                	addi	a1,a1,1
20000364:	fede17e3          	bne	t3,a3,20000352 <TMR3_IRQHandler+0x14e>
20000368:	0605                	addi	a2,a2,1
2000036a:	0ff67613          	zext.b	a2,a2
2000036e:	04a70713          	addi	a4,a4,74
20000372:	bfc9                	j	20000344 <TMR3_IRQHandler+0x140>
20000374:	4625                	li	a2,9
20000376:	eac71ae3          	bne	a4,a2,2000022a <TMR3_IRQHandler+0x26>
2000037a:	1141                	addi	sp,sp,-16
2000037c:	c622                	sw	s0,12(sp)
2000037e:	c426                	sw	s1,8(sp)
20000380:	b705                	j	200002a0 <TMR3_IRQHandler+0x9c>
20000382:	30200073          	mret

20000386 <MachineMode_Call_IRQ>:
20000386:	1141                	addi	sp,sp,-16
20000388:	c622                	sw	s0,12(sp)
2000038a:	20001437          	lui	s0,0x20001
2000038e:	aec42783          	lw	a5,-1300(s0) # 20000aec <gs_machine_mode_func>
20000392:	c791                	beqz	a5,2000039e <MachineMode_Call_IRQ+0x18>
20000394:	aec42783          	lw	a5,-1300(s0)
20000398:	9782                	jalr	a5
2000039a:	ae042623          	sw	zero,-1300(s0)
2000039e:	4432                	lw	s0,12(sp)
200003a0:	0141                	addi	sp,sp,16
200003a2:	30200073          	mret

200003a6 <SetSysClock>:
200003a6:	0007f7b7          	lui	a5,0x7f
200003aa:	53d8                	lw	a4,36(a5)
200003ac:	200017b7          	lui	a5,0x20001
200003b0:	1141                	addi	sp,sp,-16
200003b2:	aee7a423          	sw	a4,-1304(a5) # 20000ae8 <chip_info>
200003b6:	400017b7          	lui	a5,0x40001
200003ba:	4b98                	lw	a4,16(a5)
200003bc:	01076713          	ori	a4,a4,16
200003c0:	cb98                	sw	a4,16(a5)
200003c2:	2b98                	lbu	a4,16(a5)
200003c4:	0fe77713          	andi	a4,a4,254
200003c8:	ab98                	sb	a4,16(a5)
200003ca:	08800713          	li	a4,136
200003ce:	80073773          	csrrc	a4,0x800,a4
200003d2:	08877713          	andi	a4,a4,136
200003d6:	c63a                	sw	a4,12(sp)
200003d8:	0000100f          	fence.i
200003dc:	05700713          	li	a4,87
200003e0:	04e78023          	sb	a4,64(a5) # 40001040 <_eusrstack+0x1ffe1040>
200003e4:	fa800713          	li	a4,-88
200003e8:	04e78023          	sb	a4,64(a5)
200003ec:	0000100f          	fence.i
200003f0:	0c000713          	li	a4,192
200003f4:	02e51563          	bne	a0,a4,2000041e <SetSysClock+0x78>
200003f8:	279a                	lhu	a4,8(a5)
200003fa:	0c076713          	ori	a4,a4,192
200003fe:	a79a                	sh	a4,8(a5)
20000400:	400017b7          	lui	a5,0x40001
20000404:	2b98                	lbu	a4,16(a5)
20000406:	00176713          	ori	a4,a4,1
2000040a:	ab98                	sb	a4,16(a5)
2000040c:	04078023          	sb	zero,64(a5) # 40001040 <_eusrstack+0x1ffe1040>
20000410:	47b2                	lw	a5,12(sp)
20000412:	8007a7f3          	csrrs	a5,0x800,a5
20000416:	0000100f          	fence.i
2000041a:	0141                	addi	sp,sp,16
2000041c:	8082                	ret
2000041e:	27b8                	lbu	a4,10(a5)
20000420:	20057693          	andi	a3,a0,512
20000424:	caad                	beqz	a3,20000496 <SetSysClock+0xf0>
20000426:	8b11                	andi	a4,a4,4
20000428:	e329                	bnez	a4,2000046a <SetSysClock+0xc4>
2000042a:	04e7c703          	lbu	a4,78(a5)
2000042e:	04e7c603          	lbu	a2,78(a5)
20000432:	0ff77713          	zext.b	a4,a4
20000436:	00366613          	ori	a2,a2,3
2000043a:	04c78723          	sb	a2,78(a5)
2000043e:	27b0                	lbu	a2,10(a5)
20000440:	00466613          	ori	a2,a2,4
20000444:	a7b0                	sb	a2,10(a5)
20000446:	2792                	lhu	a2,8(a5)
20000448:	278e                	lhu	a1,8(a5)
2000044a:	08064633          	zext.h	a2,a2
2000044e:	0c05e593          	ori	a1,a1,192
20000452:	a78e                	sh	a1,8(a5)
20000454:	47a5                	li	a5,9
20000456:	0001                	nop
20000458:	17fd                	addi	a5,a5,-1
2000045a:	0ff7f793          	zext.b	a5,a5
2000045e:	ffe5                	bnez	a5,20000456 <SetSysClock+0xb0>
20000460:	400017b7          	lui	a5,0x40001
20000464:	a792                	sh	a2,8(a5)
20000466:	04e78723          	sb	a4,78(a5) # 4000104e <_eusrstack+0x1ffe104e>
2000046a:	10057793          	andi	a5,a0,256
2000046e:	c3dd                	beqz	a5,20000514 <SetSysClock+0x16e>
20000470:	40001737          	lui	a4,0x40001
20000474:	273c                	lbu	a5,10(a4)
20000476:	0107e793          	ori	a5,a5,16
2000047a:	a73c                	sb	a5,10(a4)
2000047c:	01f57793          	andi	a5,a0,31
20000480:	ef99                	bnez	a5,2000049e <SetSysClock+0xf8>
20000482:	400027b7          	lui	a5,0x40002
20000486:	8057c703          	lbu	a4,-2043(a5) # 40001805 <_eusrstack+0x1ffe1805>
2000048a:	01076713          	ori	a4,a4,16
2000048e:	80e782a3          	sb	a4,-2043(a5)
20000492:	471d                	li	a4,7
20000494:	a00d                	j	200004b6 <SetSysClock+0x110>
20000496:	00276713          	ori	a4,a4,2
2000049a:	a7b8                	sb	a4,10(a5)
2000049c:	b7f9                	j	2000046a <SetSysClock+0xc4>
2000049e:	4725                	li	a4,9
200004a0:	04f76663          	bltu	a4,a5,200004ec <SetSysClock+0x146>
200004a4:	400027b7          	lui	a5,0x40002
200004a8:	8057c703          	lbu	a4,-2043(a5) # 40001805 <_eusrstack+0x1ffe1805>
200004ac:	0ef77713          	andi	a4,a4,239
200004b0:	80e782a3          	sb	a4,-2043(a5)
200004b4:	4705                	li	a4,1
200004b6:	80e783a3          	sb	a4,-2041(a5)
200004ba:	08054533          	zext.h	a0,a0
200004be:	400017b7          	lui	a5,0x40001
200004c2:	0c056713          	ori	a4,a0,192
200004c6:	a79a                	sh	a4,8(a5)
200004c8:	a78a                	sh	a0,8(a5)
200004ca:	ceb5                	beqz	a3,20000546 <SetSysClock+0x1a0>
200004cc:	0457c703          	lbu	a4,69(a5) # 40001045 <_eusrstack+0x1ffe1045>
200004d0:	0457c683          	lbu	a3,69(a5)
200004d4:	8b41                	andi	a4,a4,16
200004d6:	8a85                	andi	a3,a3,1
200004d8:	8f55                	or	a4,a4,a3
200004da:	f31d                	bnez	a4,20000400 <SetSysClock+0x5a>
200004dc:	2bb8                	lbu	a4,18(a5)
200004de:	8b41                	andi	a4,a4,16
200004e0:	d305                	beqz	a4,20000400 <SetSysClock+0x5a>
200004e2:	27b8                	lbu	a4,10(a5)
200004e4:	0fd77713          	andi	a4,a4,253
200004e8:	a7b8                	sb	a4,10(a5)
200004ea:	bf19                	j	20000400 <SetSysClock+0x5a>
200004ec:	01057793          	andi	a5,a0,16
200004f0:	eb99                	bnez	a5,20000506 <SetSysClock+0x160>
200004f2:	400027b7          	lui	a5,0x40002
200004f6:	8057c703          	lbu	a4,-2043(a5) # 40001805 <_eusrstack+0x1ffe1805>
200004fa:	0ef77713          	andi	a4,a4,239
200004fe:	80e782a3          	sb	a4,-2043(a5)
20000502:	4709                	li	a4,2
20000504:	bf4d                	j	200004b6 <SetSysClock+0x110>
20000506:	400027b7          	lui	a5,0x40002
2000050a:	8057c703          	lbu	a4,-2043(a5) # 40001805 <_eusrstack+0x1ffe1805>
2000050e:	0ef77713          	andi	a4,a4,239
20000512:	bfb5                	j	2000048e <SetSysClock+0xe8>
20000514:	01857793          	andi	a5,a0,24
20000518:	ef81                	bnez	a5,20000530 <SetSysClock+0x18a>
2000051a:	400027b7          	lui	a5,0x40002
2000051e:	8057c703          	lbu	a4,-2043(a5) # 40001805 <_eusrstack+0x1ffe1805>
20000522:	0ef77713          	andi	a4,a4,239
20000526:	80e782a3          	sb	a4,-2043(a5)
2000052a:	05100713          	li	a4,81
2000052e:	b761                	j	200004b6 <SetSysClock+0x110>
20000530:	400027b7          	lui	a5,0x40002
20000534:	8057c703          	lbu	a4,-2043(a5) # 40001805 <_eusrstack+0x1ffe1805>
20000538:	0ef77713          	andi	a4,a4,239
2000053c:	80e782a3          	sb	a4,-2043(a5)
20000540:	05700713          	li	a4,87
20000544:	bf8d                	j	200004b6 <SetSysClock+0x110>
20000546:	27b8                	lbu	a4,10(a5)
20000548:	0fb77713          	andi	a4,a4,251
2000054c:	bf71                	j	200004e8 <SetSysClock+0x142>

2000054e <MachineMode_Call>:
2000054e:	e000e737          	lui	a4,0xe000e
20000552:	431c                	lw	a5,0(a4)
20000554:	4354                	lw	a3,4(a4)
20000556:	567d                	li	a2,-1
20000558:	83a1                	srli	a5,a5,0x8
2000055a:	06e2                	slli	a3,a3,0x18
2000055c:	8fd5                	or	a5,a5,a3
2000055e:	18070693          	addi	a3,a4,384 # e000e180 <_eusrstack+0xbffee180>
20000562:	c290                	sw	a2,0(a3)
20000564:	c2d0                	sw	a2,4(a3)
20000566:	200006b7          	lui	a3,0x20000
2000056a:	20000637          	lui	a2,0x20000
2000056e:	00068593          	mv	a1,a3
20000572:	38660613          	addi	a2,a2,902 # 20000386 <MachineMode_Call_IRQ>
20000576:	0385a803          	lw	a6,56(a1)
2000057a:	dd90                	sw	a2,56(a1)
2000057c:	20001637          	lui	a2,0x20001
20000580:	aea62623          	sw	a0,-1300(a2) # 20000aec <gs_machine_mode_func>
20000584:	6591                	lui	a1,0x4
20000586:	10070513          	addi	a0,a4,256
2000058a:	c10c                	sw	a1,0(a0)
2000058c:	20070713          	addi	a4,a4,512
20000590:	c30c                	sw	a1,0(a4)
20000592:	00068693          	mv	a3,a3
20000596:	aec62703          	lw	a4,-1300(a2)
2000059a:	ff75                	bnez	a4,20000596 <MachineMode_Call+0x48>
2000059c:	e000e737          	lui	a4,0xe000e
200005a0:	6611                	lui	a2,0x4
200005a2:	18c72023          	sw	a2,384(a4) # e000e180 <_eusrstack+0xbffee180>
200005a6:	0000100f          	fence.i
200005aa:	0306ac23          	sw	a6,56(a3) # 20000038 <_highcode_init_vma_start+0x38>
200005ae:	00879693          	slli	a3,a5,0x8
200005b2:	10d72023          	sw	a3,256(a4)
200005b6:	83e1                	srli	a5,a5,0x18
200005b8:	10f72223          	sw	a5,260(a4)
200005bc:	8082                	ret

200005be <SYS_ResetExecute>:
200005be:	e0000317          	auipc	t1,0xe0000
200005c2:	59c302e7          	jalr	t0,1436(t1) # b5a <__riscv_save_0>
200005c6:	1141                	addi	sp,sp,-16
200005c8:	4681                	li	a3,0
200005ca:	4601                	li	a2,0
200005cc:	4581                	li	a1,0
200005ce:	4511                	li	a0,4
200005d0:	2aed                	jal	200007ca <FLASH_EEPROM_CMD>
200005d2:	08800793          	li	a5,136
200005d6:	8007b7f3          	csrrc	a5,0x800,a5
200005da:	0887f793          	andi	a5,a5,136
200005de:	c63e                	sw	a5,12(sp)
200005e0:	0000100f          	fence.i
200005e4:	400017b7          	lui	a5,0x40001
200005e8:	05700713          	li	a4,87
200005ec:	04e78023          	sb	a4,64(a5) # 40001040 <_eusrstack+0x1ffe1040>
200005f0:	fa800713          	li	a4,-88
200005f4:	04e78023          	sb	a4,64(a5)
200005f8:	0000100f          	fence.i
200005fc:	0467c703          	lbu	a4,70(a5)
20000600:	00176713          	ori	a4,a4,1
20000604:	04e78323          	sb	a4,70(a5)
20000608:	04078023          	sb	zero,64(a5)
2000060c:	47b2                	lw	a5,12(sp)
2000060e:	8007a7f3          	csrrs	a5,0x800,a5
20000612:	0000100f          	fence.i
20000616:	0141                	addi	sp,sp,16
20000618:	e0000317          	auipc	t1,0xe0000
2000061c:	56630067          	jr	1382(t1) # b7e <__riscv_restore_0>

20000620 <SYS_DisableAllIrq>:
20000620:	e000e737          	lui	a4,0xe000e
20000624:	431c                	lw	a5,0(a4)
20000626:	4354                	lw	a3,4(a4)
20000628:	83a1                	srli	a5,a5,0x8
2000062a:	06e2                	slli	a3,a3,0x18
2000062c:	8fd5                	or	a5,a5,a3
2000062e:	c11c                	sw	a5,0(a0)
20000630:	57fd                	li	a5,-1
20000632:	18f72023          	sw	a5,384(a4) # e000e180 <_eusrstack+0xbffee180>
20000636:	18f72223          	sw	a5,388(a4)
2000063a:	8082                	ret

2000063c <SYS_RecoverIrq>:
2000063c:	00851713          	slli	a4,a0,0x8
20000640:	e000e7b7          	lui	a5,0xe000e
20000644:	10e7a023          	sw	a4,256(a5) # e000e100 <_eusrstack+0xbffee100>
20000648:	8161                	srli	a0,a0,0x18
2000064a:	10a7a223          	sw	a0,260(a5)
2000064e:	8082                	ret

20000650 <HardFault_Handler>:
20000650:	1141                	addi	sp,sp,-16
20000652:	4681                	li	a3,0
20000654:	4601                	li	a2,0
20000656:	4581                	li	a1,0
20000658:	4511                	li	a0,4
2000065a:	2a85                	jal	200007ca <FLASH_EEPROM_CMD>
2000065c:	08800713          	li	a4,136
20000660:	800737f3          	csrrc	a5,0x800,a4
20000664:	0887f793          	andi	a5,a5,136
20000668:	c43e                	sw	a5,8(sp)
2000066a:	0000100f          	fence.i
2000066e:	400017b7          	lui	a5,0x40001
20000672:	05700613          	li	a2,87
20000676:	04c78023          	sb	a2,64(a5) # 40001040 <_eusrstack+0x1ffe1040>
2000067a:	fa800693          	li	a3,-88
2000067e:	04d78023          	sb	a3,64(a5)
20000682:	0000100f          	fence.i
20000686:	55fd                	li	a1,-1
20000688:	b7ce                	sh	a1,44(a5)
2000068a:	04078023          	sb	zero,64(a5)
2000068e:	45a2                	lw	a1,8(sp)
20000690:	8005a5f3          	csrrs	a1,0x800,a1
20000694:	0000100f          	fence.i
20000698:	80073773          	csrrc	a4,0x800,a4
2000069c:	08877713          	andi	a4,a4,136
200006a0:	c63a                	sw	a4,12(sp)
200006a2:	0000100f          	fence.i
200006a6:	04c78023          	sb	a2,64(a5)
200006aa:	04d78023          	sb	a3,64(a5)
200006ae:	0000100f          	fence.i
200006b2:	0467c703          	lbu	a4,70(a5)
200006b6:	00176713          	ori	a4,a4,1
200006ba:	04e78323          	sb	a4,70(a5)
200006be:	04078023          	sb	zero,64(a5)
200006c2:	47b2                	lw	a5,12(sp)
200006c4:	8007a7f3          	csrrs	a5,0x800,a5
200006c8:	0000100f          	fence.i
200006cc:	a001                	j	200006cc <HardFault_Handler+0x7c>

200006ce <mDelayuS>:
200006ce:	04e00793          	li	a5,78
200006d2:	02f50533          	mul	a0,a0,a5
200006d6:	4795                	li	a5,5
200006d8:	02f55533          	divu	a0,a0,a5
200006dc:	0001                	nop
200006de:	157d                	addi	a0,a0,-1
200006e0:	fd75                	bnez	a0,200006dc <mDelayuS+0xe>
200006e2:	8082                	ret

200006e4 <mDelaymS>:
200006e4:	e0000317          	auipc	t1,0xe0000
200006e8:	476302e7          	jalr	t0,1142(t1) # b5a <__riscv_save_0>
200006ec:	842a                	mv	s0,a0
200006ee:	3e800513          	li	a0,1000
200006f2:	147d                	addi	s0,s0,-1
200006f4:	3fe9                	jal	200006ce <mDelayuS>
200006f6:	08044433          	zext.h	s0,s0
200006fa:	f875                	bnez	s0,200006ee <mDelaymS+0xa>
200006fc:	e0000317          	auipc	t1,0xe0000
20000700:	48230067          	jr	1154(t1) # b7e <__riscv_restore_0>

20000704 <__wrap_memcpy>:
20000704:	962e                	add	a2,a2,a1
20000706:	87aa                	mv	a5,a0
20000708:	78b6700f          	mcpy	a2,a1,a5
2000070c:	8082                	ret

2000070e <FLASH_ROM_BEG>:
2000070e:	80040323          	sb	zero,-2042(s0)
20000712:	4715                	li	a4,5
20000714:	80e40323          	sb	a4,-2042(s0)
20000718:	0001                	nop
2000071a:	80a40223          	sb	a0,-2044(s0)
2000071e:	8082                	ret

20000720 <FLASH_ROM_END>:
20000720:	80640783          	lb	a5,-2042(s0)
20000724:	fe07cee3          	bltz	a5,20000720 <FLASH_ROM_END>
20000728:	80040323          	sb	zero,-2042(s0)
2000072c:	8082                	ret

2000072e <FLASH_ROM_IN>:
2000072e:	80640783          	lb	a5,-2042(s0)
20000732:	fe07cee3          	bltz	a5,2000072e <FLASH_ROM_IN>
20000736:	80444503          	lbu	a0,-2044(s0)
2000073a:	8082                	ret

2000073c <FLASH_ROM_OUT>:
2000073c:	80640783          	lb	a5,-2042(s0)
20000740:	fe07cee3          	bltz	a5,2000073c <FLASH_ROM_OUT>
20000744:	80a40223          	sb	a0,-2044(s0)
20000748:	8082                	ret

2000074a <FLASH_ROM_ADDR>:
2000074a:	1141                	addi	sp,sp,-16
2000074c:	c426                	sw	s1,8(sp)
2000074e:	c24a                	sw	s2,4(sp)
20000750:	c04e                	sw	s3,0(sp)
20000752:	c606                	sw	ra,12(sp)
20000754:	0bf57713          	andi	a4,a0,191
20000758:	47ad                	li	a5,11
2000075a:	89aa                	mv	s3,a0
2000075c:	892e                	mv	s2,a1
2000075e:	4495                	li	s1,5
20000760:	00f70663          	beq	a4,a5,2000076c <FLASH_ROM_ADDR+0x22>
20000764:	4519                	li	a0,6
20000766:	3765                	jal	2000070e <FLASH_ROM_BEG>
20000768:	3f65                	jal	20000720 <FLASH_ROM_END>
2000076a:	448d                	li	s1,3
2000076c:	854e                	mv	a0,s3
2000076e:	3745                	jal	2000070e <FLASH_ROM_BEG>
20000770:	59fd                	li	s3,-1
20000772:	14fd                	addi	s1,s1,-1
20000774:	01349863          	bne	s1,s3,20000784 <FLASH_ROM_ADDR+0x3a>
20000778:	40b2                	lw	ra,12(sp)
2000077a:	44a2                	lw	s1,8(sp)
2000077c:	4912                	lw	s2,4(sp)
2000077e:	4982                	lw	s3,0(sp)
20000780:	0141                	addi	sp,sp,16
20000782:	8082                	ret
20000784:	01095513          	srli	a0,s2,0x10
20000788:	0ff57513          	zext.b	a0,a0
2000078c:	3f45                	jal	2000073c <FLASH_ROM_OUT>
2000078e:	0922                	slli	s2,s2,0x8
20000790:	b7cd                	j	20000772 <FLASH_ROM_ADDR+0x28>

20000792 <FLASH_ROM_WAIT>:
20000792:	1101                	addi	sp,sp,-32
20000794:	cc26                	sw	s1,24(sp)
20000796:	ce06                	sw	ra,28(sp)
20000798:	000804b7          	lui	s1,0x80
2000079c:	3751                	jal	20000720 <FLASH_ROM_END>
2000079e:	4515                	li	a0,5
200007a0:	37bd                	jal	2000070e <FLASH_ROM_BEG>
200007a2:	3771                	jal	2000072e <FLASH_ROM_IN>
200007a4:	3769                	jal	2000072e <FLASH_ROM_IN>
200007a6:	c62a                	sw	a0,12(sp)
200007a8:	3fa5                	jal	20000720 <FLASH_ROM_END>
200007aa:	4532                	lw	a0,12(sp)
200007ac:	00157793          	andi	a5,a0,1
200007b0:	eb89                	bnez	a5,200007c2 <FLASH_ROM_WAIT+0x30>
200007b2:	00156513          	ori	a0,a0,1
200007b6:	0ff57513          	zext.b	a0,a0
200007ba:	40f2                	lw	ra,28(sp)
200007bc:	44e2                	lw	s1,24(sp)
200007be:	6105                	addi	sp,sp,32
200007c0:	8082                	ret
200007c2:	14fd                	addi	s1,s1,-1 # 7ffff <_data_lma+0x7cf9b>
200007c4:	fce9                	bnez	s1,2000079e <FLASH_ROM_WAIT+0xc>
200007c6:	4501                	li	a0,0
200007c8:	bfcd                	j	200007ba <FLASH_ROM_WAIT+0x28>

200007ca <FLASH_EEPROM_CMD>:
200007ca:	7139                	addi	sp,sp,-64
200007cc:	0007f7b7          	lui	a5,0x7f
200007d0:	de06                	sw	ra,60(sp)
200007d2:	dc26                	sw	s1,56(sp)
200007d4:	da4a                	sw	s2,52(sp)
200007d6:	d84e                	sw	s3,48(sp)
200007d8:	d652                	sw	s4,44(sp)
200007da:	d456                	sw	s5,40(sp)
200007dc:	d25a                	sw	s6,36(sp)
200007de:	d05e                	sw	s7,32(sp)
200007e0:	ce62                	sw	s8,28(sp)
200007e2:	0247ab03          	lw	s6,36(a5) # 7f024 <_data_lma+0x7bfc0>
200007e6:	577d                	li	a4,-1
200007e8:	e000e7b7          	lui	a5,0xe000e
200007ec:	0007aa83          	lw	s5,0(a5) # e000e000 <_eusrstack+0xbffee000>
200007f0:	c622                	sw	s0,12(sp)
200007f2:	0047aa03          	lw	s4,4(a5)
200007f6:	18e7a023          	sw	a4,384(a5)
200007fa:	18e7a223          	sw	a4,388(a5)
200007fe:	40001bb7          	lui	s7,0x40001
20000802:	05700793          	li	a5,87
20000806:	04fb8023          	sb	a5,64(s7) # 40001040 <_eusrstack+0x1ffe1040>
2000080a:	fa800793          	li	a5,-88
2000080e:	04fb8023          	sb	a5,64(s7)
20000812:	044bc783          	lbu	a5,68(s7)
20000816:	4711                	li	a4,4
20000818:	89aa                	mv	s3,a0
2000081a:	0e07e793          	ori	a5,a5,224
2000081e:	04fb8223          	sb	a5,68(s7)
20000822:	40002437          	lui	s0,0x40002
20000826:	0ff00513          	li	a0,255
2000082a:	80e40323          	sb	a4,-2042(s0) # 40001806 <_eusrstack+0x1ffe1806>
2000082e:	8c2e                	mv	s8,a1
20000830:	8932                	mv	s2,a2
20000832:	84b6                	mv	s1,a3
20000834:	3de9                	jal	2000070e <FLASH_ROM_BEG>
20000836:	35ed                	jal	20000720 <FLASH_ROM_END>
20000838:	ff798793          	addi	a5,s3,-9
2000083c:	0ff7f793          	zext.b	a5,a5
20000840:	4709                	li	a4,2
20000842:	00fb7b13          	andi	s6,s6,15
20000846:	12f76263          	bltu	a4,a5,2000096a <FLASH_EEPROM_CMD+0x1a0>
2000084a:	47a1                	li	a5,8
2000084c:	00080737          	lui	a4,0x80
20000850:	00fb0763          	beq	s6,a5,2000085e <FLASH_EEPROM_CMD+0x94>
20000854:	000707b7          	lui	a5,0x70
20000858:	9c3e                	add	s8,s8,a5
2000085a:	00078737          	lui	a4,0x78
2000085e:	5579                	li	a0,-2
20000860:	02ec7e63          	bgeu	s8,a4,2000089c <FLASH_EEPROM_CMD+0xd2>
20000864:	018487b3          	add	a5,s1,s8
20000868:	02f76a63          	bltu	a4,a5,2000089c <FLASH_EEPROM_CMD+0xd2>
2000086c:	47a9                	li	a5,10
2000086e:	06f99863          	bne	s3,a5,200008de <FLASH_EEPROM_CMD+0x114>
20000872:	e489                	bnez	s1,2000087c <FLASH_EEPROM_CMD+0xb2>
20000874:	4481                	li	s1,0
20000876:	356d                	jal	20000720 <FLASH_ROM_END>
20000878:	8526                	mv	a0,s1
2000087a:	a00d                	j	2000089c <FLASH_EEPROM_CMD+0xd2>
2000087c:	85e2                	mv	a1,s8
2000087e:	4509                	li	a0,2
20000880:	35e9                	jal	2000074a <FLASH_ROM_ADDR>
20000882:	0905                	addi	s2,s2,1
20000884:	fff94503          	lbu	a0,-1(s2)
20000888:	14fd                	addi	s1,s1,-1
2000088a:	0c05                	addi	s8,s8,1
2000088c:	3d45                	jal	2000073c <FLASH_ROM_OUT>
2000088e:	c481                	beqz	s1,20000896 <FLASH_EEPROM_CMD+0xcc>
20000890:	0ffc7793          	zext.b	a5,s8
20000894:	f7fd                	bnez	a5,20000882 <FLASH_EEPROM_CMD+0xb8>
20000896:	3df5                	jal	20000792 <FLASH_ROM_WAIT>
20000898:	fd69                	bnez	a0,20000872 <FLASH_EEPROM_CMD+0xa8>
2000089a:	557d                	li	a0,-1
2000089c:	400017b7          	lui	a5,0x40001
200008a0:	05700713          	li	a4,87
200008a4:	04e78023          	sb	a4,64(a5) # 40001040 <_eusrstack+0x1ffe1040>
200008a8:	fa800713          	li	a4,-88
200008ac:	04e78023          	sb	a4,64(a5)
200008b0:	0447c703          	lbu	a4,68(a5)
200008b4:	8b41                	andi	a4,a4,16
200008b6:	04e78223          	sb	a4,68(a5)
200008ba:	50f2                	lw	ra,60(sp)
200008bc:	e000e7b7          	lui	a5,0xe000e
200008c0:	1157a023          	sw	s5,256(a5) # e000e100 <_eusrstack+0xbffee100>
200008c4:	1147a223          	sw	s4,260(a5)
200008c8:	54e2                	lw	s1,56(sp)
200008ca:	4432                	lw	s0,12(sp)
200008cc:	5952                	lw	s2,52(sp)
200008ce:	59c2                	lw	s3,48(sp)
200008d0:	5a32                	lw	s4,44(sp)
200008d2:	5aa2                	lw	s5,40(sp)
200008d4:	5b12                	lw	s6,36(sp)
200008d6:	5b82                	lw	s7,32(sp)
200008d8:	4c72                	lw	s8,28(sp)
200008da:	6121                	addi	sp,sp,64
200008dc:	8082                	ret
200008de:	47a5                	li	a5,9
200008e0:	06f99a63          	bne	s3,a5,20000954 <FLASH_EEPROM_CMD+0x18a>
200008e4:	47a1                	li	a5,8
200008e6:	6985                	lui	s3,0x1
200008e8:	02fb1d63          	bne	s6,a5,20000922 <FLASH_EEPROM_CMD+0x158>
200008ec:	fff98793          	addi	a5,s3,-1 # fff <KM_AnalyzeConfigDesc+0xab>
200008f0:	009786b3          	add	a3,a5,s1
200008f4:	00fc74b3          	and	s1,s8,a5
200008f8:	94b6                	add	s1,s1,a3
200008fa:	fff7c793          	not	a5,a5
200008fe:	8cfd                	and	s1,s1,a5
20000900:	0187fc33          	and	s8,a5,s8
20000904:	6b41                	lui	s6,0x10
20000906:	6b85                	lui	s7,0x1
20000908:	fff98793          	addi	a5,s3,-1
2000090c:	0187f7b3          	and	a5,a5,s8
20000910:	e399                	bnez	a5,20000916 <FLASH_EEPROM_CMD+0x14c>
20000912:	0134ff63          	bgeu	s1,s3,20000930 <FLASH_EEPROM_CMD+0x166>
20000916:	0049d993          	srli	s3,s3,0x4
2000091a:	47c1                	li	a5,16
2000091c:	ff37e6e3          	bltu	a5,s3,20000908 <FLASH_EEPROM_CMD+0x13e>
20000920:	bf91                	j	20000874 <FLASH_EEPROM_CMD+0xaa>
20000922:	0ff00793          	li	a5,255
20000926:	b7e9                	j	200008f0 <FLASH_EEPROM_CMD+0x126>
20000928:	6785                	lui	a5,0x1
2000092a:	69c1                	lui	s3,0x10
2000092c:	17fd                	addi	a5,a5,-1 # fff <KM_AnalyzeConfigDesc+0xab>
2000092e:	b7c9                	j	200008f0 <FLASH_EEPROM_CMD+0x126>
20000930:	0d800513          	li	a0,216
20000934:	01698863          	beq	s3,s6,20000944 <FLASH_EEPROM_CMD+0x17a>
20000938:	02000513          	li	a0,32
2000093c:	01798463          	beq	s3,s7,20000944 <FLASH_EEPROM_CMD+0x17a>
20000940:	08100513          	li	a0,129
20000944:	85e2                	mv	a1,s8
20000946:	3511                	jal	2000074a <FLASH_ROM_ADDR>
20000948:	35a9                	jal	20000792 <FLASH_ROM_WAIT>
2000094a:	d921                	beqz	a0,2000089a <FLASH_EEPROM_CMD+0xd0>
2000094c:	9c4e                	add	s8,s8,s3
2000094e:	413484b3          	sub	s1,s1,s3
20000952:	b7c1                	j	20000912 <FLASH_EEPROM_CMD+0x148>
20000954:	85e2                	mv	a1,s8
20000956:	452d                	li	a0,11
20000958:	3bcd                	jal	2000074a <FLASH_ROM_ADDR>
2000095a:	94ca                	add	s1,s1,s2
2000095c:	f0990ce3          	beq	s2,s1,20000874 <FLASH_EEPROM_CMD+0xaa>
20000960:	0905                	addi	s2,s2,1
20000962:	33f1                	jal	2000072e <FLASH_ROM_IN>
20000964:	fea90fa3          	sb	a0,-1(s2)
20000968:	bfd5                	j	2000095c <FLASH_EEPROM_CMD+0x192>
2000096a:	fff98793          	addi	a5,s3,-1 # ffff <_data_lma+0xcf9b>
2000096e:	0ff7f793          	zext.b	a5,a5
20000972:	0af76f63          	bltu	a4,a5,20000a30 <.loop411+0x68>
20000976:	47a1                	li	a5,8
20000978:	06fb1963          	bne	s6,a5,200009ea <.loop411+0x22>
2000097c:	000807b7          	lui	a5,0x80
20000980:	9c3e                	add	s8,s8,a5
20000982:	045bc783          	lbu	a5,69(s7) # 1045 <KM_AnalyzeConfigDesc+0xf1>
20000986:	00070737          	lui	a4,0x70
2000098a:	0207f793          	andi	a5,a5,32
2000098e:	e399                	bnez	a5,20000994 <FLASH_EEPROM_CMD+0x1ca>
20000990:	00078737          	lui	a4,0x78
20000994:	000807b7          	lui	a5,0x80
20000998:	973e                	add	a4,a4,a5
2000099a:	5579                	li	a0,-2
2000099c:	f0ec70e3          	bgeu	s8,a4,2000089c <FLASH_EEPROM_CMD+0xd2>
200009a0:	009c07b3          	add	a5,s8,s1
200009a4:	eef76ce3          	bltu	a4,a5,2000089c <FLASH_EEPROM_CMD+0xd2>
200009a8:	4789                	li	a5,2
200009aa:	04f99a63          	bne	s3,a5,200009fe <.loop411+0x36>
200009ae:	8089                	srli	s1,s1,0x2
200009b0:	49d5                	li	s3,21
200009b2:	ec0481e3          	beqz	s1,20000874 <FLASH_EEPROM_CMD+0xaa>
200009b6:	85e2                	mv	a1,s8
200009b8:	4509                	li	a0,2
200009ba:	3b41                	jal	2000074a <FLASH_ROM_ADDR>
200009bc:	0911                	addi	s2,s2,4
200009be:	ffc92703          	lw	a4,-4(s2)
200009c2:	4791                	li	a5,4
200009c4:	80e42023          	sw	a4,-2048(s0)

200009c8 <.loop411>:
200009c8:	80640703          	lb	a4,-2042(s0)
200009cc:	fe074ee3          	bltz	a4,200009c8 <.loop411>
200009d0:	81340323          	sb	s3,-2042(s0)
200009d4:	17fd                	addi	a5,a5,-1 # 7ffff <_data_lma+0x7cf9b>
200009d6:	fbed                	bnez	a5,200009c8 <.loop411>
200009d8:	14fd                	addi	s1,s1,-1
200009da:	0c11                	addi	s8,s8,4
200009dc:	c481                	beqz	s1,200009e4 <.loop411+0x1c>
200009de:	0ffc7793          	zext.b	a5,s8
200009e2:	ffe9                	bnez	a5,200009bc <FLASH_EEPROM_CMD+0x1f2>
200009e4:	337d                	jal	20000792 <FLASH_ROM_WAIT>
200009e6:	f571                	bnez	a0,200009b2 <FLASH_EEPROM_CMD+0x1e8>
200009e8:	bd4d                	j	2000089a <FLASH_EEPROM_CMD+0xd0>
200009ea:	045bc783          	lbu	a5,69(s7)
200009ee:	00070737          	lui	a4,0x70
200009f2:	0207f793          	andi	a5,a5,32
200009f6:	f3d5                	bnez	a5,2000099a <FLASH_EEPROM_CMD+0x1d0>
200009f8:	00078737          	lui	a4,0x78
200009fc:	bf79                	j	2000099a <FLASH_EEPROM_CMD+0x1d0>
200009fe:	4785                	li	a5,1
20000a00:	f2f984e3          	beq	s3,a5,20000928 <FLASH_EEPROM_CMD+0x15e>
20000a04:	85e2                	mv	a1,s8
20000a06:	452d                	li	a0,11
20000a08:	3389                	jal	2000074a <FLASH_ROM_ADDR>
20000a0a:	fff48993          	addi	s3,s1,-1
20000a0e:	e60483e3          	beqz	s1,20000874 <FLASH_EEPROM_CMD+0xaa>
20000a12:	3b31                	jal	2000072e <FLASH_ROM_IN>
20000a14:	0039f793          	andi	a5,s3,3
20000a18:	eb91                	bnez	a5,20000a2c <.loop411+0x64>
20000a1a:	80042683          	lw	a3,-2048(s0)
20000a1e:	00092703          	lw	a4,0(s2)
20000a22:	00490793          	addi	a5,s2,4
20000a26:	e4e698e3          	bne	a3,a4,20000876 <FLASH_EEPROM_CMD+0xac>
20000a2a:	893e                	mv	s2,a5
20000a2c:	84ce                	mv	s1,s3
20000a2e:	bff1                	j	20000a0a <.loop411+0x42>
20000a30:	47b5                	li	a5,13
20000a32:	00f99663          	bne	s3,a5,20000a3e <.loop411+0x76>
20000a36:	0b900513          	li	a0,185
20000a3a:	39d1                	jal	2000070e <FLASH_ROM_BEG>
20000a3c:	bd25                	j	20000874 <FLASH_EEPROM_CMD+0xaa>
20000a3e:	47b1                	li	a5,12
20000a40:	0ab00513          	li	a0,171
20000a44:	fef98be3          	beq	s3,a5,20000a3a <.loop411+0x72>
20000a48:	4799                	li	a5,6
20000a4a:	04f99463          	bne	s3,a5,20000a92 <.loop411+0xca>
20000a4e:	47a1                	li	a5,8
20000a50:	00fb1563          	bne	s6,a5,20000a5a <.loop411+0x92>
20000a54:	000807b7          	lui	a5,0x80
20000a58:	9c3e                	add	s8,s8,a5
20000a5a:	85e2                	mv	a1,s8
20000a5c:	452d                	li	a0,11
20000a5e:	31f5                	jal	2000074a <FLASH_ROM_ADDR>
20000a60:	4481                	li	s1,0
20000a62:	4b0d                	li	s6,3
20000a64:	49a1                	li	s3,8
20000a66:	31e1                	jal	2000072e <FLASH_ROM_IN>
20000a68:	01649663          	bne	s1,s6,20000a74 <.loop411+0xac>
20000a6c:	80042783          	lw	a5,-2048(s0)
20000a70:	00f92023          	sw	a5,0(s2)
20000a74:	0485                	addi	s1,s1,1
20000a76:	ff3498e3          	bne	s1,s3,20000a66 <.loop411+0x9e>
20000a7a:	80042783          	lw	a5,-2048(s0)
20000a7e:	012c1713          	slli	a4,s8,0x12
20000a82:	00075563          	bgez	a4,20000a8c <.loop411+0xc4>
20000a86:	00f91223          	sh	a5,4(s2)
20000a8a:	b3ed                	j	20000874 <FLASH_EEPROM_CMD+0xaa>
20000a8c:	00f92223          	sw	a5,4(s2)
20000a90:	b3d5                	j	20000874 <FLASH_EEPROM_CMD+0xaa>
20000a92:	479d                	li	a5,7
20000a94:	02f99963          	bne	s3,a5,20000ac6 <.loop411+0xfe>
20000a98:	4581                	li	a1,0
20000a9a:	04b00513          	li	a0,75
20000a9e:	3175                	jal	2000074a <FLASH_ROM_ADDR>
20000aa0:	44bd                	li	s1,15
20000aa2:	00092023          	sw	zero,0(s2)
20000aa6:	00092223          	sw	zero,4(s2)
20000aaa:	59fd                	li	s3,-1
20000aac:	3149                	jal	2000072e <FLASH_ROM_IN>
20000aae:	0074f793          	andi	a5,s1,7
20000ab2:	97ca                	add	a5,a5,s2
20000ab4:	0007c703          	lbu	a4,0(a5) # 80000 <_data_lma+0x7cf9c>
20000ab8:	14fd                	addi	s1,s1,-1
20000aba:	8d39                	xor	a0,a0,a4
20000abc:	00a78023          	sb	a0,0(a5)
20000ac0:	ff3496e3          	bne	s1,s3,20000aac <.loop411+0xe4>
20000ac4:	bb45                	j	20000874 <FLASH_EEPROM_CMD+0xaa>
20000ac6:	4791                	li	a5,4
20000ac8:	00f99963          	bne	s3,a5,20000ada <.loop411+0x112>
20000acc:	06600513          	li	a0,102
20000ad0:	393d                	jal	2000070e <FLASH_ROM_BEG>
20000ad2:	31b9                	jal	20000720 <FLASH_ROM_END>
20000ad4:	09900513          	li	a0,153
20000ad8:	b78d                	j	20000a3a <.loop411+0x72>
20000ada:	d8098de3          	beqz	s3,20000874 <FLASH_EEPROM_CMD+0xaa>
20000ade:	54f1                	li	s1,-4
20000ae0:	bb59                	j	20000876 <FLASH_EEPROM_CMD+0xac>
	...

Disassembly of section .text:

00000ae8 <handle_reset>:
     ae8:	20001197          	auipc	gp,0x20001
     aec:	80018193          	addi	gp,gp,-2048 # 200012e8 <__global_pointer$>
     af0:	2001f117          	auipc	sp,0x2001f
     af4:	51010113          	addi	sp,sp,1296 # 20020000 <_eusrstack>
     af8:	00400513          	li	a0,4
     afc:	1ffff597          	auipc	a1,0x1ffff
     b00:	50458593          	addi	a1,a1,1284 # 20000000 <_highcode_init_vma_start>
     b04:	1ffff617          	auipc	a2,0x1ffff
     b08:	70060613          	addi	a2,a2,1792 # 20000204 <TMR3_IRQHandler>
     b0c:	00c5fa63          	bgeu	a1,a2,b20 <handle_reset+0x38>
     b10:	00052283          	lw	t0,0(a0)
     b14:	0055a023          	sw	t0,0(a1)
     b18:	0511                	addi	a0,a0,4
     b1a:	0591                	addi	a1,a1,4
     b1c:	fec5eae3          	bltu	a1,a2,b10 <handle_reset+0x28>
     b20:	1ffff517          	auipc	a0,0x1ffff
     b24:	63050513          	addi	a0,a0,1584 # 20000150 <__highcode_init>
     b28:	8502                	jr	a0

00000b2a <__riscv_save_12>:
     b2a:	7139                	addi	sp,sp,-64
     b2c:	4301                	li	t1,0
     b2e:	c66e                	sw	s11,12(sp)
     b30:	a019                	j	b36 <__riscv_save_10+0x4>

00000b32 <__riscv_save_10>:
     b32:	7139                	addi	sp,sp,-64
     b34:	5341                	li	t1,-16
     b36:	c86a                	sw	s10,16(sp)
     b38:	ca66                	sw	s9,20(sp)
     b3a:	cc62                	sw	s8,24(sp)
     b3c:	ce5e                	sw	s7,28(sp)
     b3e:	a019                	j	b44 <__riscv_save_4+0x4>

00000b40 <__riscv_save_4>:
     b40:	7139                	addi	sp,sp,-64
     b42:	5301                	li	t1,-32
     b44:	d05a                	sw	s6,32(sp)
     b46:	d256                	sw	s5,36(sp)
     b48:	d452                	sw	s4,40(sp)
     b4a:	d64e                	sw	s3,44(sp)
     b4c:	d84a                	sw	s2,48(sp)
     b4e:	da26                	sw	s1,52(sp)
     b50:	dc22                	sw	s0,56(sp)
     b52:	de06                	sw	ra,60(sp)
     b54:	40610133          	sub	sp,sp,t1
     b58:	8282                	jr	t0

00000b5a <__riscv_save_0>:
     b5a:	1141                	addi	sp,sp,-16
     b5c:	c04a                	sw	s2,0(sp)
     b5e:	c226                	sw	s1,4(sp)
     b60:	c422                	sw	s0,8(sp)
     b62:	c606                	sw	ra,12(sp)
     b64:	8282                	jr	t0

00000b66 <__riscv_restore_12>:
     b66:	4db2                	lw	s11,12(sp)
     b68:	0141                	addi	sp,sp,16

00000b6a <__riscv_restore_10>:
     b6a:	4d02                	lw	s10,0(sp)
     b6c:	4c92                	lw	s9,4(sp)
     b6e:	4c22                	lw	s8,8(sp)
     b70:	4bb2                	lw	s7,12(sp)
     b72:	0141                	addi	sp,sp,16

00000b74 <__riscv_restore_4>:
     b74:	4b02                	lw	s6,0(sp)
     b76:	4a92                	lw	s5,4(sp)
     b78:	4a22                	lw	s4,8(sp)
     b7a:	49b2                	lw	s3,12(sp)
     b7c:	0141                	addi	sp,sp,16

00000b7e <__riscv_restore_0>:
     b7e:	4902                	lw	s2,0(sp)
     b80:	4492                	lw	s1,4(sp)
     b82:	4422                	lw	s0,8(sp)
     b84:	40b2                	lw	ra,12(sp)
     b86:	0141                	addi	sp,sp,16
     b88:	8082                	ret

00000b8a <memcpy>:
     b8a:	832a                	mv	t1,a0
     b8c:	ca09                	beqz	a2,b9e <memcpy+0x14>
     b8e:	00058383          	lb	t2,0(a1)
     b92:	00730023          	sb	t2,0(t1)
     b96:	167d                	addi	a2,a2,-1
     b98:	0305                	addi	t1,t1,1
     b9a:	0585                	addi	a1,a1,1
     b9c:	fa6d                	bnez	a2,b8e <memcpy+0x4>
     b9e:	8082                	ret

00000ba0 <memset>:
     ba0:	832a                	mv	t1,a0
     ba2:	c611                	beqz	a2,bae <memset+0xe>
     ba4:	00b30023          	sb	a1,0(t1)
     ba8:	167d                	addi	a2,a2,-1
     baa:	0305                	addi	t1,t1,1
     bac:	fe65                	bnez	a2,ba4 <memset+0x4>
     bae:	8082                	ret

00000bb0 <USBH_CheckRootHubPortStatus>:
     bb0:	4785                	li	a5,1
     bb2:	00f51663          	bne	a0,a5,bbe <USBH_CheckRootHubPortStatus+0xe>
     bb6:	3cb1c503          	lbu	a0,971(gp) # 200016b3 <RootHubDev+0x1f>
     bba:	27c0106f          	j	1e36 <USBHSH_CheckRootHubPortStatus>
     bbe:	0fb00513          	li	a0,251
     bc2:	8082                	ret

00000bc4 <USBH_ResetRootHubPort>:
     bc4:	4785                	li	a5,1
     bc6:	00f51563          	bne	a0,a5,bd0 <USBH_ResetRootHubPort+0xc>
     bca:	852e                	mv	a0,a1
     bcc:	2cc0106f          	j	1e98 <USBHSH_ResetRootHubPort>
     bd0:	8082                	ret

00000bd2 <USBH_EnableRootHubPort>:
     bd2:	4785                	li	a5,1
     bd4:	00f51663          	bne	a0,a5,be0 <USBH_EnableRootHubPort+0xe>
     bd8:	3ce18513          	addi	a0,gp,974 # 200016b6 <RootHubDev+0x22>
     bdc:	31c0106f          	j	1ef8 <USBHSH_EnableRootHubPort>
     be0:	0fb00513          	li	a0,251
     be4:	8082                	ret

00000be6 <USBH_GetDeviceDescr>:
     be6:	4785                	li	a5,1
     be8:	00f51a63          	bne	a0,a5,bfc <USBH_GetDeviceDescr+0x16>
     bec:	200025b7          	lui	a1,0x20002
     bf0:	ad458593          	addi	a1,a1,-1324 # 20001ad4 <DevDesc_Buf>
     bf4:	3cf18513          	addi	a0,gp,975 # 200016b7 <RootHubDev+0x23>
     bf8:	67e0106f          	j	2276 <USBHSH_GetDeviceDescr>
     bfc:	0fb00513          	li	a0,251
     c00:	8082                	ret

00000c02 <USBH_SetUsbAddress>:
     c02:	4785                	li	a5,1
     c04:	00f51c63          	bne	a0,a5,c1c <USBH_SetUsbAddress+0x1a>
     c08:	3ac18793          	addi	a5,gp,940 # 20001694 <RootHubDev>
     c0c:	0237c503          	lbu	a0,35(a5)
     c10:	470d                	li	a4,3
     c12:	458d                	li	a1,3
     c14:	02e780a3          	sb	a4,33(a5)
     c18:	7620106f          	j	237a <USBHSH_SetUsbAddress>
     c1c:	0fb00513          	li	a0,251
     c20:	8082                	ret

00000c22 <USBH_GetConfigDescr>:
     c22:	4785                	li	a5,1
     c24:	00f51b63          	bne	a0,a5,c3a <USBH_GetConfigDescr+0x18>
     c28:	3cf1c503          	lbu	a0,975(gp) # 200016b7 <RootHubDev+0x23>
     c2c:	86ae                	mv	a3,a1
     c2e:	40000613          	li	a2,1024
     c32:	3ec18593          	addi	a1,gp,1004 # 200016d4 <Com_Buf>
     c36:	6840106f          	j	22ba <USBHSH_GetConfigDescr>
     c3a:	0fb00513          	li	a0,251
     c3e:	8082                	ret

00000c40 <USBH_AnalyseType>:
     c40:	215c                	lbu	a5,4(a0)
     c42:	46a1                	li	a3,8
     c44:	02d78763          	beq	a5,a3,c72 <USBH_AnalyseType+0x32>
     c48:	25f8                	lbu	a4,14(a1)
     c4a:	02d70663          	beq	a4,a3,c76 <USBH_AnalyseType+0x36>
     c4e:	469d                	li	a3,7
     c50:	02d78163          	beq	a5,a3,c72 <USBH_AnalyseType+0x32>
     c54:	02d70363          	beq	a4,a3,c7a <USBH_AnalyseType+0x3a>
     c58:	468d                	li	a3,3
     c5a:	00d78c63          	beq	a5,a3,c72 <USBH_AnalyseType+0x32>
     c5e:	02d70063          	beq	a4,a3,c7e <USBH_AnalyseType+0x3e>
     c62:	46a5                	li	a3,9
     c64:	00d78763          	beq	a5,a3,c72 <USBH_AnalyseType+0x32>
     c68:	0ff00793          	li	a5,255
     c6c:	00d71363          	bne	a4,a3,c72 <USBH_AnalyseType+0x32>
     c70:	47a5                	li	a5,9
     c72:	a21c                	sb	a5,0(a2)
     c74:	8082                	ret
     c76:	47a1                	li	a5,8
     c78:	bfed                	j	c72 <USBH_AnalyseType+0x32>
     c7a:	479d                	li	a5,7
     c7c:	bfdd                	j	c72 <USBH_AnalyseType+0x32>
     c7e:	478d                	li	a5,3
     c80:	bfcd                	j	c72 <USBH_AnalyseType+0x32>

00000c82 <USBH_SetUsbConfig>:
     c82:	4785                	li	a5,1
     c84:	00f51663          	bne	a0,a5,c90 <USBH_SetUsbConfig+0xe>
     c88:	3cf1c503          	lbu	a0,975(gp) # 200016b7 <RootHubDev+0x23>
     c8c:	72e0106f          	j	23ba <USBHSH_SetUsbConfig>
     c90:	0fb00513          	li	a0,251
     c94:	8082                	ret

00000c96 <USBH_GetStrDescr>:
     c96:	4785                	li	a5,1
     c98:	00f51863          	bne	a0,a5,ca8 <USBH_GetStrDescr+0x12>
     c9c:	852e                	mv	a0,a1
     c9e:	85b2                	mv	a1,a2
     ca0:	3ec18613          	addi	a2,gp,1004 # 200016d4 <Com_Buf>
     ca4:	6780106f          	j	231c <USBHSH_GetStrDescr>
     ca8:	0fb00513          	li	a0,251
     cac:	8082                	ret

00000cae <USBH_GetHidData>:
     cae:	eadff2ef          	jal	t0,b5a <__riscv_save_0>
     cb2:	8336                	mv	t1,a3
     cb4:	86be                	mv	a3,a5
     cb6:	4785                	li	a5,1
     cb8:	04f51663          	bne	a0,a5,d04 <USBH_GetHidData+0x56>
     cbc:	8832                	mv	a6,a2
     cbe:	02500513          	li	a0,37
     cc2:	02a80533          	mul	a0,a6,a0
     cc6:	00d30793          	addi	a5,t1,13
     cca:	200018b7          	lui	a7,0x20001
     cce:	af088893          	addi	a7,a7,-1296 # 20000af0 <HostCtl>
     cd2:	863a                	mv	a2,a4
     cd4:	953e                	add	a0,a0,a5
     cd6:	09500793          	li	a5,149
     cda:	02f587b3          	mul	a5,a1,a5
     cde:	953e                	add	a0,a0,a5
     ce0:	04a00793          	li	a5,74
     ce4:	02f80833          	mul	a6,a6,a5
     ce8:	12a00793          	li	a5,298
     cec:	02f585b3          	mul	a1,a1,a5
     cf0:	982e                	add	a6,a6,a1
     cf2:	9846                	add	a6,a6,a7
     cf4:	981a                	add	a6,a6,t1
     cf6:	211525b3          	sh1add	a1,a0,a7
     cfa:	00984503          	lbu	a0,9(a6)
     cfe:	6f2010ef          	jal	ra,23f0 <USBHSH_GetEndpData>
     d02:	bdb5                	j	b7e <__riscv_restore_0>
     d04:	0fb00513          	li	a0,251
     d08:	bfed                	j	d02 <USBH_GetHidData+0x54>

00000d0a <USBH_SendHidData>:
     d0a:	e51ff2ef          	jal	t0,b5a <__riscv_save_0>
     d0e:	8336                	mv	t1,a3
     d10:	86be                	mv	a3,a5
     d12:	4785                	li	a5,1
     d14:	04f51663          	bne	a0,a5,d60 <USBH_SendHidData+0x56>
     d18:	8832                	mv	a6,a2
     d1a:	02500513          	li	a0,37
     d1e:	02a80533          	mul	a0,a6,a0
     d22:	01e30793          	addi	a5,t1,30
     d26:	200018b7          	lui	a7,0x20001
     d2a:	af088893          	addi	a7,a7,-1296 # 20000af0 <HostCtl>
     d2e:	863a                	mv	a2,a4
     d30:	953e                	add	a0,a0,a5
     d32:	09500793          	li	a5,149
     d36:	02f587b3          	mul	a5,a1,a5
     d3a:	953e                	add	a0,a0,a5
     d3c:	04a00793          	li	a5,74
     d40:	02f80833          	mul	a6,a6,a5
     d44:	12a00793          	li	a5,298
     d48:	02f585b3          	mul	a1,a1,a5
     d4c:	982e                	add	a6,a6,a1
     d4e:	9846                	add	a6,a6,a7
     d50:	981a                	add	a6,a6,t1
     d52:	211525b3          	sh1add	a1,a0,a7
     d56:	02b84503          	lbu	a0,43(a6)
     d5a:	6e2010ef          	jal	ra,243c <USBHSH_SendEndpData>
     d5e:	b505                	j	b7e <__riscv_restore_0>
     d60:	0fb00513          	li	a0,251
     d64:	bfed                	j	d5e <USBH_SendHidData+0x54>

00000d66 <USBH_ClearEndpStall>:
     d66:	4785                	li	a5,1
     d68:	00f51663          	bne	a0,a5,d74 <USBH_ClearEndpStall+0xe>
     d6c:	3cf1c503          	lbu	a0,975(gp) # 200016b7 <RootHubDev+0x23>
     d70:	6660106f          	j	23d6 <USBHSH_ClearEndpStall>
     d74:	0fb00513          	li	a0,251
     d78:	8082                	ret

00000d7a <USBH_EnumRootDevice>:
     d7a:	db1ff2ef          	jal	t0,b2a <__riscv_save_12>
     d7e:	842a                	mv	s0,a0
     d80:	650d                	lui	a0,0x3
     d82:	1101                	addi	sp,sp,-32
     d84:	dc050513          	addi	a0,a0,-576 # 2dc0 <strlen+0x10>
     d88:	7c9010ef          	jal	ra,2d50 <puts>
     d8c:	47fd                	li	a5,31
     d8e:	02f407b3          	mul	a5,s0,a5
     d92:	3ac18913          	addi	s2,gp,940 # 20001694 <RootHubDev>
     d96:	20002a37          	lui	s4,0x20002
     d9a:	4485                	li	s1,1
     d9c:	ad4a0c93          	addi	s9,s4,-1324 # 20001ad4 <DevDesc_Buf>
     da0:	3ec18b13          	addi	s6,gp,1004 # 200016d4 <Com_Buf>
     da4:	00178993          	addi	s3,a5,1
     da8:	99ca                	add	s3,s3,s2
     daa:	993e                	add	s2,s2,a5
     dac:	06400513          	li	a0,100
     db0:	20000097          	auipc	ra,0x20000
     db4:	934080e7          	jalr	-1740(ra) # 200006e4 <mDelaymS>
     db8:	4521                	li	a0,8
     dba:	00951533          	sll	a0,a0,s1
     dbe:	08054533          	zext.h	a0,a0
     dc2:	20000097          	auipc	ra,0x20000
     dc6:	922080e7          	jalr	-1758(ra) # 200006e4 <mDelaymS>
     dca:	4581                	li	a1,0
     dcc:	8522                	mv	a0,s0
     dce:	3bdd                	jal	bc4 <USBH_ResetRootHubPort>
     dd0:	4b81                	li	s7,0
     dd2:	4c01                	li	s8,0
     dd4:	06400d93          	li	s11,100
     dd8:	4d19                	li	s10,6
     dda:	8522                	mv	a0,s0
     ddc:	3bdd                	jal	bd2 <USBH_EnableRootHubPort>
     dde:	ed19                	bnez	a0,dfc <USBH_EnumRootDevice+0x82>
     de0:	0c05                	addi	s8,s8,1
     de2:	0ffc7c13          	zext.b	s8,s8
     de6:	118d6663          	bltu	s10,s8,ef2 <USBH_EnumRootDevice+0x178>
     dea:	4505                	li	a0,1
     dec:	20000097          	auipc	ra,0x20000
     df0:	8f8080e7          	jalr	-1800(ra) # 200006e4 <mDelaymS>
     df4:	4b85                	li	s7,1
     df6:	b7d5                	j	dda <USBH_EnumRootDevice+0x60>
     df8:	0485                	addi	s1,s1,1
     dfa:	bf4d                	j	dac <USBH_EnumRootDevice+0x32>
     dfc:	4505                	li	a0,1
     dfe:	0b85                	addi	s7,s7,1
     e00:	20000097          	auipc	ra,0x20000
     e04:	8e4080e7          	jalr	-1820(ra) # 200006e4 <mDelaymS>
     e08:	080bcbb3          	zext.h	s7,s7
     e0c:	fdbb97e3          	bne	s7,s11,dda <USBH_EnumRootDevice+0x60>
     e10:	4799                	li	a5,6
     e12:	fef493e3          	bne	s1,a5,df8 <USBH_EnumRootDevice+0x7e>
     e16:	45d9                	li	a1,22
     e18:	a811                	j	e2c <USBH_EnumRootDevice+0xb2>
     e1a:	650d                	lui	a0,0x3
     e1c:	de050513          	addi	a0,a0,-544 # 2de0 <strlen+0x30>
     e20:	70d010ef          	jal	ra,2d2c <printf>
     e24:	fda49ae3          	bne	s1,s10,df8 <USBH_EnumRootDevice+0x7e>
     e28:	04500593          	li	a1,69
     e2c:	852e                	mv	a0,a1
     e2e:	6105                	addi	sp,sp,32
     e30:	bb1d                	j	b66 <__riscv_restore_12>
     e32:	6b8d                	lui	s7,0x3
     e34:	decb8513          	addi	a0,s7,-532 # 2dec <strlen+0x3c>
     e38:	719010ef          	jal	ra,2d50 <puts>
     e3c:	4515                	li	a0,5
     e3e:	20000097          	auipc	ra,0x20000
     e42:	8a6080e7          	jalr	-1882(ra) # 200006e4 <mDelaymS>
     e46:	650d                	lui	a0,0x3
     e48:	df050513          	addi	a0,a0,-528 # 2df0 <strlen+0x40>
     e4c:	6e1010ef          	jal	ra,2d2c <printf>
     e50:	01e10593          	addi	a1,sp,30
     e54:	8522                	mv	a0,s0
     e56:	33f1                	jal	c22 <USBH_GetConfigDescr>
     e58:	85aa                	mv	a1,a0
     e5a:	e535                	bnez	a0,ec6 <USBH_EnumRootDevice+0x14c>
     e5c:	3ec18793          	addi	a5,gp,1004 # 200016d4 <Com_Buf>
     e60:	33dc                	lbu	a5,5(a5)
     e62:	4d81                	li	s11,0
     e64:	c63e                	sw	a5,12(sp)
     e66:	87b8                	lhu	a4,30(sp)
     e68:	04ede363          	bltu	s11,a4,eae <USBH_EnumRootDevice+0x134>
     e6c:	fd8c0513          	addi	a0,s8,-40
     e70:	6e1010ef          	jal	ra,2d50 <puts>
     e74:	864e                	mv	a2,s3
     e76:	85da                	mv	a1,s6
     e78:	ad4a0513          	addi	a0,s4,-1324
     e7c:	33d1                	jal	c40 <USBH_AnalyseType>
     e7e:	00194583          	lbu	a1,1(s2)
     e82:	650d                	lui	a0,0x3
     e84:	e0050513          	addi	a0,a0,-512 # 2e00 <strlen+0x50>
     e88:	6a5010ef          	jal	ra,2d2c <printf>
     e8c:	650d                	lui	a0,0x3
     e8e:	e1050513          	addi	a0,a0,-496 # 2e10 <strlen+0x60>
     e92:	69b010ef          	jal	ra,2d2c <printf>
     e96:	45b2                	lw	a1,12(sp)
     e98:	8522                	mv	a0,s0
     e9a:	33e5                	jal	c82 <USBH_SetUsbConfig>
     e9c:	85aa                	mv	a1,a0
     e9e:	ed1d                	bnez	a0,edc <USBH_EnumRootDevice+0x162>
     ea0:	c62a                	sw	a0,12(sp)
     ea2:	decb8513          	addi	a0,s7,-532
     ea6:	6ab010ef          	jal	ra,2d50 <puts>
     eaa:	45b2                	lw	a1,12(sp)
     eac:	b741                	j	e2c <USBH_EnumRootDevice+0xb2>
     eae:	01bb0733          	add	a4,s6,s11
     eb2:	230c                	lbu	a1,0(a4)
     eb4:	dc8d0513          	addi	a0,s10,-568
     eb8:	675010ef          	jal	ra,2d2c <printf>
     ebc:	001d8793          	addi	a5,s11,1
     ec0:	0807cdb3          	zext.h	s11,a5
     ec4:	b74d                	j	e66 <USBH_EnumRootDevice+0xec>
     ec6:	650d                	lui	a0,0x3
     ec8:	de050513          	addi	a0,a0,-544 # 2de0 <strlen+0x30>
     ecc:	661010ef          	jal	ra,2d2c <printf>
     ed0:	4799                	li	a5,6
     ed2:	f2f493e3          	bne	s1,a5,df8 <USBH_EnumRootDevice+0x7e>
     ed6:	04700593          	li	a1,71
     eda:	bf89                	j	e2c <USBH_EnumRootDevice+0xb2>
     edc:	650d                	lui	a0,0x3
     ede:	de050513          	addi	a0,a0,-544 # 2de0 <strlen+0x30>
     ee2:	64b010ef          	jal	ra,2d2c <printf>
     ee6:	4799                	li	a5,6
     ee8:	f0f498e3          	bne	s1,a5,df8 <USBH_EnumRootDevice+0x7e>
     eec:	0fb00593          	li	a1,251
     ef0:	bf35                	j	e2c <USBH_EnumRootDevice+0xb2>
     ef2:	650d                	lui	a0,0x3
     ef4:	e1c50513          	addi	a0,a0,-484 # 2e1c <strlen+0x6c>
     ef8:	635010ef          	jal	ra,2d2c <printf>
     efc:	8522                	mv	a0,s0
     efe:	31e5                	jal	be6 <USBH_GetDeviceDescr>
     f00:	85aa                	mv	a1,a0
     f02:	f0051ce3          	bnez	a0,e1a <USBH_EnumRootDevice+0xa0>
     f06:	4b81                	li	s7,0
     f08:	6d0d                	lui	s10,0x3
     f0a:	4c49                	li	s8,18
     f0c:	019b87b3          	add	a5,s7,s9
     f10:	238c                	lbu	a1,0(a5)
     f12:	dc8d0513          	addi	a0,s10,-568 # 2dc8 <strlen+0x18>
     f16:	0b85                	addi	s7,s7,1
     f18:	615010ef          	jal	ra,2d2c <printf>
     f1c:	ff8b98e3          	bne	s7,s8,f0c <USBH_EnumRootDevice+0x192>
     f20:	6c0d                	lui	s8,0x3
     f22:	fd8c0513          	addi	a0,s8,-40 # 2fd8 <strlen+0x228>
     f26:	62b010ef          	jal	ra,2d50 <puts>
     f2a:	650d                	lui	a0,0x3
     f2c:	dd050513          	addi	a0,a0,-560 # 2dd0 <strlen+0x20>
     f30:	5fd010ef          	jal	ra,2d2c <printf>
     f34:	8522                	mv	a0,s0
     f36:	31f1                	jal	c02 <USBH_SetUsbAddress>
     f38:	85aa                	mv	a1,a0
     f3a:	ee050ce3          	beqz	a0,e32 <USBH_EnumRootDevice+0xb8>
     f3e:	650d                	lui	a0,0x3
     f40:	de050513          	addi	a0,a0,-544 # 2de0 <strlen+0x30>
     f44:	5e9010ef          	jal	ra,2d2c <printf>
     f48:	4799                	li	a5,6
     f4a:	eaf497e3          	bne	s1,a5,df8 <USBH_EnumRootDevice+0x7e>
     f4e:	04600593          	li	a1,70
     f52:	bde9                	j	e2c <USBH_EnumRootDevice+0xb2>

00000f54 <KM_AnalyzeConfigDesc>:
     f54:	bdfff2ef          	jal	t0,b32 <__riscv_save_10>
     f58:	12a00b13          	li	s6,298
     f5c:	03658b33          	mul	s6,a1,s6
     f60:	20001ab7          	lui	s5,0x20001
     f64:	af0a8a93          	addi	s5,s5,-1296 # 20000af0 <HostCtl>
     f68:	8a2a                	mv	s4,a0
     f6a:	892e                	mv	s2,a1
     f6c:	4481                	li	s1,0
     f6e:	4401                	li	s0,0
     f70:	3ec18993          	addi	s3,gp,1004 # 200016d4 <Com_Buf>
     f74:	4c09                	li	s8,2
     f76:	016a8bb3          	add	s7,s5,s6
     f7a:	0029d783          	lhu	a5,2(s3)
     f7e:	20f45063          	bge	s0,a5,117e <KM_AnalyzeConfigDesc+0x22a>
     f82:	008987b3          	add	a5,s3,s0
     f86:	3398                	lbu	a4,1(a5)
     f88:	01871d63          	bne	a4,s8,fa2 <KM_AnalyzeConfigDesc+0x4e>
     f8c:	23d8                	lbu	a4,4(a5)
     f8e:	4691                	li	a3,4
     f90:	0ad75733          	minu	a4,a4,a3
     f94:	00eb8023          	sb	a4,0(s7)
     f98:	239c                	lbu	a5,0(a5)
     f9a:	97a2                	add	a5,a5,s0
     f9c:	0807c433          	zext.h	s0,a5
     fa0:	bfe9                	j	f7a <KM_AnalyzeConfigDesc+0x26>
     fa2:	4691                	li	a3,4
     fa4:	fed71ae3          	bne	a4,a3,f98 <KM_AnalyzeConfigDesc+0x44>
     fa8:	1ce48b63          	beq	s1,a4,117e <KM_AnalyzeConfigDesc+0x22a>
     fac:	33d4                	lbu	a3,5(a5)
     fae:	470d                	li	a4,3
     fb0:	1ae69763          	bne	a3,a4,115e <KM_AnalyzeConfigDesc+0x20a>
     fb4:	23f4                	lbu	a3,6(a5)
     fb6:	4705                	li	a4,1
     fb8:	18d76463          	bltu	a4,a3,1140 <KM_AnalyzeConfigDesc+0x1ec>
     fbc:	33f4                	lbu	a3,7(a5)
     fbe:	18dc6163          	bltu	s8,a3,1140 <KM_AnalyzeConfigDesc+0x1ec>
     fc2:	0ee69563          	bne	a3,a4,10ac <KM_AnalyzeConfigDesc+0x158>
     fc6:	04a00713          	li	a4,74
     fca:	12a00613          	li	a2,298
     fce:	02e48733          	mul	a4,s1,a4
     fd2:	200017b7          	lui	a5,0x20001
     fd6:	af078793          	addi	a5,a5,-1296 # 20000af0 <HostCtl>
     fda:	02c90633          	mul	a2,s2,a2
     fde:	9732                	add	a4,a4,a2
     fe0:	97ba                	add	a5,a5,a4
     fe2:	a3b4                	sb	a3,2(a5)
     fe4:	477d                	li	a4,31
     fe6:	02ea0733          	mul	a4,s4,a4
     fea:	3ac18793          	addi	a5,gp,940 # 20001694 <RootHubDev>
     fee:	4681                	li	a3,0
     ff0:	8626                	mv	a2,s1
     ff2:	8552                	mv	a0,s4
     ff4:	97ba                	add	a5,a5,a4
     ff6:	23cc                	lbu	a1,4(a5)
     ff8:	4701                	li	a4,0
     ffa:	578010ef          	jal	ra,2572 <HID_SetIdle>
     ffe:	008987b3          	add	a5,s3,s0
    1002:	239c                	lbu	a5,0(a5)
    1004:	12a00713          	li	a4,298
    1008:	02e90733          	mul	a4,s2,a4
    100c:	97a2                	add	a5,a5,s0
    100e:	0807c433          	zext.h	s0,a5
    1012:	04a00793          	li	a5,74
    1016:	02500693          	li	a3,37
    101a:	200018b7          	lui	a7,0x20001
    101e:	0029c303          	lbu	t1,2(s3)
    1022:	af088893          	addi	a7,a7,-1296 # 20000af0 <HostCtl>
    1026:	4501                	li	a0,0
    1028:	4801                	li	a6,0
    102a:	02f487b3          	mul	a5,s1,a5
    102e:	4e11                	li	t3,4
    1030:	4e95                	li	t4,5
    1032:	02100f13          	li	t5,33
    1036:	97ba                	add	a5,a5,a4
    1038:	09500713          	li	a4,149
    103c:	02d486b3          	mul	a3,s1,a3
    1040:	97c6                	add	a5,a5,a7
    1042:	02e90733          	mul	a4,s2,a4
    1046:	96ba                	add	a3,a3,a4
    1048:	00898733          	add	a4,s3,s0
    104c:	3310                	lbu	a2,1(a4)
    104e:	0bc60e63          	beq	a2,t3,110a <KM_AnalyzeConfigDesc+0x1b6>
    1052:	0a647c63          	bgeu	s0,t1,110a <KM_AnalyzeConfigDesc+0x1b6>
    1056:	230c                	lbu	a1,0(a4)
    1058:	95a2                	add	a1,a1,s0
    105a:	0805c5b3          	zext.h	a1,a1
    105e:	09d61e63          	bne	a2,t4,10fa <KM_AnalyzeConfigDesc+0x1a6>
    1062:	3350                	lbu	a2,5(a4)
    1064:	00274f83          	lbu	t6,2(a4) # 78002 <_data_lma+0x74f9e>
    1068:	2340                	lbu	s0,4(a4)
    106a:	0622                	slli	a2,a2,0x8
    106c:	00fff393          	andi	t2,t6,15
    1070:	00374283          	lbu	t0,3(a4)
    1074:	8e41                	or	a2,a2,s0
    1076:	604f9f93          	sext.b	t6,t6
    107a:	040fdc63          	bgez	t6,10d2 <KM_AnalyzeConfigDesc+0x17e>
    107e:	2378                	lbu	a4,6(a4)
    1080:	01078fb3          	add	t6,a5,a6
    1084:	005f86a3          	sb	t0,13(t6)
    1088:	02ef8123          	sb	a4,34(t6)
    108c:	2798                	lbu	a4,8(a5)
    108e:	010682b3          	add	t0,a3,a6
    1092:	0805                	addi	a6,a6,1
    1094:	0705                	addi	a4,a4,1
    1096:	2112a2b3          	sh1add	t0,t0,a7
    109a:	007f84a3          	sb	t2,9(t6)
    109e:	00c29923          	sh	a2,18(t0)
    10a2:	a798                	sb	a4,8(a5)
    10a4:	0ff87813          	zext.b	a6,a6
    10a8:	842e                	mv	s0,a1
    10aa:	bf79                	j	1048 <KM_AnalyzeConfigDesc+0xf4>
    10ac:	f58699e3          	bne	a3,s8,ffe <KM_AnalyzeConfigDesc+0xaa>
    10b0:	04a00713          	li	a4,74
    10b4:	12a00693          	li	a3,298
    10b8:	02e48733          	mul	a4,s1,a4
    10bc:	200017b7          	lui	a5,0x20001
    10c0:	af078793          	addi	a5,a5,-1296 # 20000af0 <HostCtl>
    10c4:	02d906b3          	mul	a3,s2,a3
    10c8:	9736                	add	a4,a4,a3
    10ca:	97ba                	add	a5,a5,a4
    10cc:	01878123          	sb	s8,2(a5)
    10d0:	bf11                	j	fe4 <KM_AnalyzeConfigDesc+0x90>
    10d2:	00a78733          	add	a4,a5,a0
    10d6:	027705a3          	sb	t2,43(a4)
    10da:	025707a3          	sb	t0,47(a4)
    10de:	00a68733          	add	a4,a3,a0
    10e2:	21172733          	sh1add	a4,a4,a7
    10e6:	bb52                	sh	a2,52(a4)
    10e8:	02a7c703          	lbu	a4,42(a5)
    10ec:	0505                	addi	a0,a0,1
    10ee:	0ff57513          	zext.b	a0,a0
    10f2:	0705                	addi	a4,a4,1
    10f4:	02e78523          	sb	a4,42(a5)
    10f8:	bf45                	j	10a8 <KM_AnalyzeConfigDesc+0x154>
    10fa:	fbe617e3          	bne	a2,t5,10a8 <KM_AnalyzeConfigDesc+0x154>
    10fe:	3370                	lbu	a2,7(a4)
    1100:	2718                	lbu	a4,8(a4)
    1102:	0722                	slli	a4,a4,0x8
    1104:	8f51                	or	a4,a4,a2
    1106:	a3da                	sh	a4,4(a5)
    1108:	b745                	j	10a8 <KM_AnalyzeConfigDesc+0x154>
    110a:	4785                	li	a5,1
    110c:	02f51663          	bne	a0,a5,1138 <KM_AnalyzeConfigDesc+0x1e4>
    1110:	04a00713          	li	a4,74
    1114:	12a00693          	li	a3,298
    1118:	02e48733          	mul	a4,s1,a4
    111c:	200017b7          	lui	a5,0x20001
    1120:	af078793          	addi	a5,a5,-1296 # 20000af0 <HostCtl>
    1124:	02d906b3          	mul	a3,s2,a3
    1128:	9736                	add	a4,a4,a3
    112a:	97ba                	add	a5,a5,a4
    112c:	23b8                	lbu	a4,2(a5)
    112e:	00a71563          	bne	a4,a0,1138 <KM_AnalyzeConfigDesc+0x1e4>
    1132:	577d                	li	a4,-1
    1134:	04e78423          	sb	a4,72(a5)
    1138:	0485                	addi	s1,s1,1
    113a:	0ff4f493          	zext.b	s1,s1
    113e:	bd35                	j	f7a <KM_AnalyzeConfigDesc+0x26>
    1140:	04a00793          	li	a5,74
    1144:	02f487b3          	mul	a5,s1,a5
    1148:	577d                	li	a4,-1
    114a:	97da                	add	a5,a5,s6
    114c:	97d6                	add	a5,a5,s5
    114e:	a3b8                	sb	a4,2(a5)
    1150:	008987b3          	add	a5,s3,s0
    1154:	239c                	lbu	a5,0(a5)
    1156:	97a2                	add	a5,a5,s0
    1158:	0807c433          	zext.h	s0,a5
    115c:	bff1                	j	1138 <KM_AnalyzeConfigDesc+0x1e4>
    115e:	04a00713          	li	a4,74
    1162:	12a00693          	li	a3,298
    1166:	02e48733          	mul	a4,s1,a4
    116a:	200017b7          	lui	a5,0x20001
    116e:	af078793          	addi	a5,a5,-1296 # 20000af0 <HostCtl>
    1172:	02d906b3          	mul	a3,s2,a3
    1176:	9736                	add	a4,a4,a3
    1178:	97ba                	add	a5,a5,a4
    117a:	577d                	li	a4,-1
    117c:	a3b8                	sb	a4,2(a5)
    117e:	4501                	li	a0,0
    1180:	b2ed                	j	b6a <__riscv_restore_10>

00001182 <KM_AnalyzeHidReportDesc>:
    1182:	3ec1c683          	lbu	a3,1004(gp) # 200016d4 <Com_Buf>
    1186:	4795                	li	a5,5
    1188:	1af69763          	bne	a3,a5,1336 <KM_AnalyzeHidReportDesc+0x1b4>
    118c:	3ec18713          	addi	a4,gp,1004 # 200016d4 <Com_Buf>
    1190:	3314                	lbu	a3,1(a4)
    1192:	4785                	li	a5,1
    1194:	1af69163          	bne	a3,a5,1336 <KM_AnalyzeHidReportDesc+0x1b4>
    1198:	2334                	lbu	a3,2(a4)
    119a:	47a5                	li	a5,9
    119c:	18f69d63          	bne	a3,a5,1336 <KM_AnalyzeHidReportDesc+0x1b4>
    11a0:	3334                	lbu	a3,3(a4)
    11a2:	4799                	li	a5,6
    11a4:	18f69963          	bne	a3,a5,1336 <KM_AnalyzeHidReportDesc+0x1b4>
    11a8:	999ff2ef          	jal	t0,b40 <__riscv_save_4>
    11ac:	04a00793          	li	a5,74
    11b0:	12a00813          	li	a6,298
    11b4:	03050833          	mul	a6,a0,a6
    11b8:	20001637          	lui	a2,0x20001
    11bc:	af060693          	addi	a3,a2,-1296 # 20000af0 <HostCtl>
    11c0:	4881                	li	a7,0
    11c2:	4e81                	li	t4,0
    11c4:	4f01                	li	t5,0
    11c6:	4301                	li	t1,0
    11c8:	af060613          	addi	a2,a2,-1296
    11cc:	4411                	li	s0,4
    11ce:	08000f93          	li	t6,128
    11d2:	02f587b3          	mul	a5,a1,a5
    11d6:	09000293          	li	t0,144
    11da:	07000493          	li	s1,112
    11de:	4921                	li	s2,8
    11e0:	49c1                	li	s3,16
    11e2:	02000a13          	li	s4,32
    11e6:	97c2                	add	a5,a5,a6
    11e8:	97b6                	add	a5,a5,a3
    11ea:	0047d383          	lhu	t2,4(a5)
    11ee:	4801                	li	a6,0
    11f0:	4791                	li	a5,4
    11f2:	0277e663          	bltu	a5,t2,121e <KM_AnalyzeHidReportDesc+0x9c>
    11f6:	47a1                	li	a5,8
    11f8:	12f89263          	bne	a7,a5,131c <KM_AnalyzeHidReportDesc+0x19a>
    11fc:	04a00793          	li	a5,74
    1200:	12a00713          	li	a4,298
    1204:	02e50733          	mul	a4,a0,a4
    1208:	02f587b3          	mul	a5,a1,a5
    120c:	97ba                	add	a5,a5,a4
    120e:	97b2                	add	a5,a5,a2
    1210:	0487c703          	lbu	a4,72(a5)
    1214:	e701                	bnez	a4,121c <KM_AnalyzeHidReportDesc+0x9a>
    1216:	4705                	li	a4,1
    1218:	04e78423          	sb	a4,72(a5)
    121c:	baa1                	j	b74 <__riscv_restore_4>
    121e:	00f706b3          	add	a3,a4,a5
    1222:	2294                	lbu	a3,0(a3)
    1224:	0785                	addi	a5,a5,1
    1226:	0807c7b3          	zext.h	a5,a5
    122a:	00c6fa93          	andi	s5,a3,12
    122e:	0036fe13          	andi	t3,a3,3
    1232:	0f06f693          	andi	a3,a3,240
    1236:	048a8963          	beq	s5,s0,1288 <KM_AnalyzeHidReportDesc+0x106>
    123a:	092a8763          	beq	s5,s2,12c8 <KM_AnalyzeHidReportDesc+0x146>
    123e:	020a9b63          	bnez	s5,1274 <KM_AnalyzeHidReportDesc+0xf2>
    1242:	02569963          	bne	a3,t0,1274 <KM_AnalyzeHidReportDesc+0xf2>
    1246:	02080763          	beqz	a6,1274 <KM_AnalyzeHidReportDesc+0xf2>
    124a:	02030063          	beqz	t1,126a <KM_AnalyzeHidReportDesc+0xe8>
    124e:	04a00693          	li	a3,74
    1252:	12a00a93          	li	s5,298
    1256:	03550ab3          	mul	s5,a0,s5
    125a:	02d586b3          	mul	a3,a1,a3
    125e:	96d6                	add	a3,a3,s5
    1260:	96b2                	add	a3,a3,a2
    1262:	0446ca83          	lbu	s5,68(a3)
    1266:	000a8b63          	beqz	s5,127c <KM_AnalyzeHidReportDesc+0xfa>
    126a:	03ee86b3          	mul	a3,t4,t5
    126e:	96c6                	add	a3,a3,a7
    1270:	0806c8b3          	zext.h	a7,a3
    1274:	9e3e                	add	t3,t3,a5
    1276:	080e47b3          	zext.h	a5,t3
    127a:	bfa5                	j	11f2 <KM_AnalyzeHidReportDesc+0x70>
    127c:	4a85                	li	s5,1
    127e:	05568223          	sb	s5,68(a3)
    1282:	046682a3          	sb	t1,69(a3)
    1286:	b7d5                	j	126a <KM_AnalyzeHidReportDesc+0xe8>
    1288:	03f68363          	beq	a3,t6,12ae <KM_AnalyzeHidReportDesc+0x12c>
    128c:	00dfea63          	bltu	t6,a3,12a0 <KM_AnalyzeHidReportDesc+0x11e>
    1290:	c685                	beqz	a3,12b8 <KM_AnalyzeHidReportDesc+0x136>
    1292:	fe9691e3          	bne	a3,s1,1274 <KM_AnalyzeHidReportDesc+0xf2>
    1296:	00f706b3          	add	a3,a4,a5
    129a:	0006cf03          	lbu	t5,0(a3)
    129e:	bfd9                	j	1274 <KM_AnalyzeHidReportDesc+0xf2>
    12a0:	fc569ae3          	bne	a3,t0,1274 <KM_AnalyzeHidReportDesc+0xf2>
    12a4:	00f706b3          	add	a3,a4,a5
    12a8:	0006ce83          	lbu	t4,0(a3)
    12ac:	b7e1                	j	1274 <KM_AnalyzeHidReportDesc+0xf2>
    12ae:	00f706b3          	add	a3,a4,a5
    12b2:	0006c303          	lbu	t1,0(a3)
    12b6:	bf7d                	j	1274 <KM_AnalyzeHidReportDesc+0xf2>
    12b8:	00f706b3          	add	a3,a4,a5
    12bc:	0006c803          	lbu	a6,0(a3)
    12c0:	1861                	addi	a6,a6,-8
    12c2:	00183813          	seqz	a6,a6
    12c6:	b77d                	j	1274 <KM_AnalyzeHidReportDesc+0xf2>
    12c8:	03368763          	beq	a3,s3,12f6 <KM_AnalyzeHidReportDesc+0x174>
    12cc:	fb4694e3          	bne	a3,s4,1274 <KM_AnalyzeHidReportDesc+0xf2>
    12d0:	fa0802e3          	beqz	a6,1274 <KM_AnalyzeHidReportDesc+0xf2>
    12d4:	04a00693          	li	a3,74
    12d8:	12a00a93          	li	s5,298
    12dc:	03550ab3          	mul	s5,a0,s5
    12e0:	02d586b3          	mul	a3,a1,a3
    12e4:	96d6                	add	a3,a3,s5
    12e6:	00f70ab3          	add	s5,a4,a5
    12ea:	000aca83          	lbu	s5,0(s5)
    12ee:	96b2                	add	a3,a3,a2
    12f0:	055683a3          	sb	s5,71(a3)
    12f4:	b741                	j	1274 <KM_AnalyzeHidReportDesc+0xf2>
    12f6:	f6080fe3          	beqz	a6,1274 <KM_AnalyzeHidReportDesc+0xf2>
    12fa:	04a00693          	li	a3,74
    12fe:	12a00a93          	li	s5,298
    1302:	03550ab3          	mul	s5,a0,s5
    1306:	02d586b3          	mul	a3,a1,a3
    130a:	96d6                	add	a3,a3,s5
    130c:	00f70ab3          	add	s5,a4,a5
    1310:	000aca83          	lbu	s5,0(s5)
    1314:	96b2                	add	a3,a3,a2
    1316:	05568323          	sb	s5,70(a3)
    131a:	bfa9                	j	1274 <KM_AnalyzeHidReportDesc+0xf2>
    131c:	04a00793          	li	a5,74
    1320:	02f585b3          	mul	a1,a1,a5
    1324:	12a00793          	li	a5,298
    1328:	02f50533          	mul	a0,a0,a5
    132c:	95aa                	add	a1,a1,a0
    132e:	962e                	add	a2,a2,a1
    1330:	04060423          	sb	zero,72(a2)
    1334:	b5e5                	j	121c <KM_AnalyzeHidReportDesc+0x9a>
    1336:	8082                	ret

00001338 <KM_DealHidReportDesc>:
    1338:	ff2ff2ef          	jal	t0,b2a <__riscv_save_12>
    133c:	12a00a93          	li	s5,298
    1340:	03558ab3          	mul	s5,a1,s5
    1344:	200019b7          	lui	s3,0x20001
    1348:	af098b93          	addi	s7,s3,-1296 # 20000af0 <HostCtl>
    134c:	1141                	addi	sp,sp,-16
    134e:	c42a                	sw	a0,8(sp)
    1350:	8b2e                	mv	s6,a1
    1352:	c632                	sw	a2,12(sp)
    1354:	4a01                	li	s4,0
    1356:	af098993          	addi	s3,s3,-1296
    135a:	6c8d                	lui	s9,0x3
    135c:	9bd6                	add	s7,s7,s5
    135e:	000bc483          	lbu	s1,0(s7)
    1362:	6d0d                	lui	s10,0x3
    1364:	14fd                	addi	s1,s1,-1
    1366:	0ff4f493          	zext.b	s1,s1
    136a:	0ff00793          	li	a5,255
    136e:	00f49463          	bne	s1,a5,1376 <KM_DealHidReportDesc+0x3e>
    1372:	4501                	li	a0,0
    1374:	a85d                	j	142a <KM_DealHidReportDesc+0xf2>
    1376:	000bc403          	lbu	s0,0(s7)
    137a:	04a00913          	li	s2,74
    137e:	147d                	addi	s0,s0,-1
    1380:	8c05                	sub	s0,s0,s1
    1382:	0ff47413          	zext.b	s0,s0
    1386:	03240933          	mul	s2,s0,s2
    138a:	015907b3          	add	a5,s2,s5
    138e:	97ce                	add	a5,a5,s3
    1390:	23de                	lhu	a5,4(a5)
    1392:	c3c1                	beqz	a5,1412 <KM_DealHidReportDesc+0xda>
    1394:	004a8793          	addi	a5,s5,4
    1398:	993e                	add	s2,s2,a5
    139a:	994e                	add	s2,s2,s3
    139c:	4d95                	li	s11,5
    139e:	85a2                	mv	a1,s0
    13a0:	e2cc8513          	addi	a0,s9,-468 # 2e2c <strlen+0x7c>
    13a4:	189010ef          	jal	ra,2d2c <printf>
    13a8:	45b2                	lw	a1,12(sp)
    13aa:	4522                	lw	a0,8(sp)
    13ac:	874a                	mv	a4,s2
    13ae:	3ec18693          	addi	a3,gp,1004 # 200016d4 <Com_Buf>
    13b2:	8622                	mv	a2,s0
    13b4:	0a05                	addi	s4,s4,1
    13b6:	154010ef          	jal	ra,250a <HID_GetHidDesr>
    13ba:	0ffa7a13          	zext.b	s4,s4
    13be:	85aa                	mv	a1,a0
    13c0:	ed29                	bnez	a0,141a <KM_DealHidReportDesc+0xe2>
    13c2:	04a00913          	li	s2,74
    13c6:	12a00793          	li	a5,298
    13ca:	03240933          	mul	s2,s0,s2
    13ce:	4d81                	li	s11,0
    13d0:	3ec18713          	addi	a4,gp,1004 # 200016d4 <Com_Buf>
    13d4:	668d                	lui	a3,0x3
    13d6:	02fb07b3          	mul	a5,s6,a5
    13da:	993e                	add	s2,s2,a5
    13dc:	994e                	add	s2,s2,s3
    13de:	a831                	j	13fa <KM_DealHidReportDesc+0xc2>
    13e0:	01b707b3          	add	a5,a4,s11
    13e4:	238c                	lbu	a1,0(a5)
    13e6:	dc868513          	addi	a0,a3,-568 # 2dc8 <strlen+0x18>
    13ea:	0d85                	addi	s11,s11,1
    13ec:	141010ef          	jal	ra,2d2c <printf>
    13f0:	668d                	lui	a3,0x3
    13f2:	3ec18713          	addi	a4,gp,1004 # 200016d4 <Com_Buf>
    13f6:	080dcdb3          	zext.h	s11,s11
    13fa:	00495783          	lhu	a5,4(s2)
    13fe:	fefde1e3          	bltu	s11,a5,13e0 <KM_DealHidReportDesc+0xa8>
    1402:	650d                	lui	a0,0x3
    1404:	fd850513          	addi	a0,a0,-40 # 2fd8 <strlen+0x228>
    1408:	149010ef          	jal	ra,2d50 <puts>
    140c:	85a2                	mv	a1,s0
    140e:	855a                	mv	a0,s6
    1410:	3b8d                	jal	1182 <KM_AnalyzeHidReportDesc>
    1412:	14fd                	addi	s1,s1,-1
    1414:	0ff4f493          	zext.b	s1,s1
    1418:	bf89                	j	136a <KM_DealHidReportDesc+0x32>
    141a:	de0d0513          	addi	a0,s10,-544 # 2de0 <strlen+0x30>
    141e:	10f010ef          	jal	ra,2d2c <printf>
    1422:	f74dfee3          	bgeu	s11,s4,139e <KM_DealHidReportDesc+0x66>
    1426:	04800513          	li	a0,72
    142a:	0141                	addi	sp,sp,16
    142c:	f3aff06f          	j	b66 <__riscv_restore_12>

00001430 <HUB_AnalyzeConfigDesc>:
    1430:	12a00713          	li	a4,298
    1434:	02e50733          	mul	a4,a0,a4
    1438:	20001837          	lui	a6,0x20001
    143c:	3ec18793          	addi	a5,gp,1004 # 200016d4 <Com_Buf>
    1440:	af080813          	addi	a6,a6,-1296 # 20000af0 <HostCtl>
    1444:	0027d883          	lhu	a7,2(a5)
    1448:	3ec18593          	addi	a1,gp,1004 # 200016d4 <Com_Buf>
    144c:	4781                	li	a5,0
    144e:	4309                	li	t1,2
    1450:	4e11                	li	t3,4
    1452:	4ea5                	li	t4,9
    1454:	983a                	add	a6,a6,a4
    1456:	4f05                	li	t5,1
    1458:	0117c463          	blt	a5,a7,1460 <HUB_AnalyzeConfigDesc+0x30>
    145c:	4501                	li	a0,0
    145e:	8082                	ret
    1460:	00f58733          	add	a4,a1,a5
    1464:	2310                	lbu	a2,0(a4)
    1466:	3314                	lbu	a3,1(a4)
    1468:	97b2                	add	a5,a5,a2
    146a:	0807c7b3          	zext.h	a5,a5
    146e:	00669863          	bne	a3,t1,147e <HUB_AnalyzeConfigDesc+0x4e>
    1472:	2358                	lbu	a4,4(a4)
    1474:	0be75733          	minu	a4,a4,t5
    1478:	00e80023          	sb	a4,0(a6)
    147c:	bff1                	j	1458 <HUB_AnalyzeConfigDesc+0x28>
    147e:	fdc69de3          	bne	a3,t3,1458 <HUB_AnalyzeConfigDesc+0x28>
    1482:	3358                	lbu	a4,5(a4)
    1484:	fdd71ae3          	bne	a4,t4,1458 <HUB_AnalyzeConfigDesc+0x28>
    1488:	12a00693          	li	a3,298
    148c:	02d506b3          	mul	a3,a0,a3
    1490:	20001737          	lui	a4,0x20001
    1494:	af070713          	addi	a4,a4,-1296 # 20000af0 <HostCtl>
    1498:	4f91                	li	t6,4
    149a:	4295                	li	t0,5
    149c:	9736                	add	a4,a4,a3
    149e:	00f586b3          	add	a3,a1,a5
    14a2:	3290                	lbu	a2,1(a3)
    14a4:	fbf60ae3          	beq	a2,t6,1458 <HUB_AnalyzeConfigDesc+0x28>
    14a8:	fb17d8e3          	bge	a5,a7,1458 <HUB_AnalyzeConfigDesc+0x28>
    14ac:	0006c383          	lbu	t2,0(a3) # 3000 <strlen+0x250>
    14b0:	979e                	add	a5,a5,t2
    14b2:	0807c7b3          	zext.h	a5,a5
    14b6:	fe5614e3          	bne	a2,t0,149e <HUB_AnalyzeConfigDesc+0x6e>
    14ba:	22b0                	lbu	a2,2(a3)
    14bc:	60461393          	sext.b	t2,a2
    14c0:	fc03dfe3          	bgez	t2,149e <HUB_AnalyzeConfigDesc+0x6e>
    14c4:	8a3d                	andi	a2,a2,15
    14c6:	b710                	sb	a2,9(a4)
    14c8:	32b0                	lbu	a2,3(a3)
    14ca:	0046c383          	lbu	t2,4(a3)
    14ce:	b750                	sb	a2,13(a4)
    14d0:	32d0                	lbu	a2,5(a3)
    14d2:	22f4                	lbu	a3,6(a3)
    14d4:	0622                	slli	a2,a2,0x8
    14d6:	02d70123          	sb	a3,34(a4)
    14da:	2714                	lbu	a3,8(a4)
    14dc:	00766633          	or	a2,a2,t2
    14e0:	ab32                	sh	a2,18(a4)
    14e2:	0685                	addi	a3,a3,1
    14e4:	a714                	sb	a3,8(a4)
    14e6:	bf65                	j	149e <HUB_AnalyzeConfigDesc+0x6e>

000014e8 <USBH_EnumHubDevice>:
    14e8:	e4aff2ef          	jal	t0,b32 <__riscv_save_10>
    14ec:	84aa                	mv	s1,a0
    14ee:	650d                	lui	a0,0x3
    14f0:	1141                	addi	sp,sp,-16
    14f2:	e4850513          	addi	a0,a0,-440 # 2e48 <strlen+0x98>
    14f6:	89ae                	mv	s3,a1
    14f8:	059010ef          	jal	ra,2d50 <puts>
    14fc:	650d                	lui	a0,0x3
    14fe:	e5450513          	addi	a0,a0,-428 # 2e54 <strlen+0xa4>
    1502:	02b010ef          	jal	ra,2d2c <printf>
    1506:	477d                	li	a4,31
    1508:	02e48733          	mul	a4,s1,a4
    150c:	3ac18793          	addi	a5,gp,940 # 20001694 <RootHubDev>
    1510:	97ba                	add	a5,a5,a4
    1512:	33c8                	lbu	a0,5(a5)
    1514:	3f31                	jal	1430 <HUB_AnalyzeConfigDesc>
    1516:	12051963          	bnez	a0,1648 <USBH_EnumHubDevice+0x160>
    151a:	650d                	lui	a0,0x3
    151c:	dec50513          	addi	a0,a0,-532 # 2dec <strlen+0x3c>
    1520:	031010ef          	jal	ra,2d50 <puts>
    1524:	3ec18793          	addi	a5,gp,1004 # 200016d4 <Com_Buf>
    1528:	23fc                	lbu	a5,6(a5)
    152a:	3ac18a93          	addi	s5,gp,940 # 20001694 <RootHubDev>
    152e:	3ec18913          	addi	s2,gp,1004 # 200016d4 <Com_Buf>
    1532:	cf85                	beqz	a5,156a <USBH_EnumHubDevice+0x82>
    1534:	650d                	lui	a0,0x3
    1536:	e6850513          	addi	a0,a0,-408 # 2e68 <strlen+0xb8>
    153a:	7f2010ef          	jal	ra,2d2c <printf>
    153e:	00694603          	lbu	a2,6(s2)
    1542:	85ce                	mv	a1,s3
    1544:	8526                	mv	a0,s1
    1546:	f50ff0ef          	jal	ra,c96 <USBH_GetStrDescr>
    154a:	85aa                	mv	a1,a0
    154c:	4401                	li	s0,0
    154e:	12051163          	bnez	a0,1670 <USBH_EnumHubDevice+0x188>
    1552:	6a0d                	lui	s4,0x3
    1554:	00094703          	lbu	a4,0(s2)
    1558:	080447b3          	zext.h	a5,s0
    155c:	10e7e163          	bltu	a5,a4,165e <USBH_EnumHubDevice+0x176>
    1560:	650d                	lui	a0,0x3
    1562:	fd850513          	addi	a0,a0,-40 # 2fd8 <strlen+0x228>
    1566:	7ea010ef          	jal	ra,2d50 <puts>
    156a:	20002437          	lui	s0,0x20002
    156e:	ad440793          	addi	a5,s0,-1324 # 20001ad4 <DevDesc_Buf>
    1572:	27fc                	lbu	a5,14(a5)
    1574:	ad440413          	addi	s0,s0,-1324
    1578:	cb9d                	beqz	a5,15ae <USBH_EnumHubDevice+0xc6>
    157a:	650d                	lui	a0,0x3
    157c:	e7c50513          	addi	a0,a0,-388 # 2e7c <strlen+0xcc>
    1580:	7ac010ef          	jal	ra,2d2c <printf>
    1584:	2470                	lbu	a2,14(s0)
    1586:	85ce                	mv	a1,s3
    1588:	8526                	mv	a0,s1
    158a:	f0cff0ef          	jal	ra,c96 <USBH_GetStrDescr>
    158e:	85aa                	mv	a1,a0
    1590:	4a01                	li	s4,0
    1592:	0e051e63          	bnez	a0,168e <USBH_EnumHubDevice+0x1a6>
    1596:	6b8d                	lui	s7,0x3
    1598:	00094703          	lbu	a4,0(s2)
    159c:	080a47b3          	zext.h	a5,s4
    15a0:	0ce7ee63          	bltu	a5,a4,167c <USBH_EnumHubDevice+0x194>
    15a4:	650d                	lui	a0,0x3
    15a6:	fd850513          	addi	a0,a0,-40 # 2fd8 <strlen+0x228>
    15aa:	7a6010ef          	jal	ra,2d50 <puts>
    15ae:	347c                	lbu	a5,15(s0)
    15b0:	cb9d                	beqz	a5,15e6 <USBH_EnumHubDevice+0xfe>
    15b2:	650d                	lui	a0,0x3
    15b4:	e9050513          	addi	a0,a0,-368 # 2e90 <strlen+0xe0>
    15b8:	774010ef          	jal	ra,2d2c <printf>
    15bc:	3470                	lbu	a2,15(s0)
    15be:	85ce                	mv	a1,s3
    15c0:	8526                	mv	a0,s1
    15c2:	ed4ff0ef          	jal	ra,c96 <USBH_GetStrDescr>
    15c6:	85aa                	mv	a1,a0
    15c8:	4a01                	li	s4,0
    15ca:	0e051163          	bnez	a0,16ac <USBH_EnumHubDevice+0x1c4>
    15ce:	6b8d                	lui	s7,0x3
    15d0:	00094703          	lbu	a4,0(s2)
    15d4:	080a47b3          	zext.h	a5,s4
    15d8:	0ce7e163          	bltu	a5,a4,169a <USBH_EnumHubDevice+0x1b2>
    15dc:	650d                	lui	a0,0x3
    15de:	fd850513          	addi	a0,a0,-40 # 2fd8 <strlen+0x228>
    15e2:	76e010ef          	jal	ra,2d50 <puts>
    15e6:	281c                	lbu	a5,16(s0)
    15e8:	cb9d                	beqz	a5,161e <USBH_EnumHubDevice+0x136>
    15ea:	650d                	lui	a0,0x3
    15ec:	ea450513          	addi	a0,a0,-348 # 2ea4 <strlen+0xf4>
    15f0:	73c010ef          	jal	ra,2d2c <printf>
    15f4:	2810                	lbu	a2,16(s0)
    15f6:	85ce                	mv	a1,s3
    15f8:	8526                	mv	a0,s1
    15fa:	e9cff0ef          	jal	ra,c96 <USBH_GetStrDescr>
    15fe:	85aa                	mv	a1,a0
    1600:	4401                	li	s0,0
    1602:	0c051463          	bnez	a0,16ca <USBH_EnumHubDevice+0x1e2>
    1606:	6a0d                	lui	s4,0x3
    1608:	00094703          	lbu	a4,0(s2)
    160c:	080447b3          	zext.h	a5,s0
    1610:	0ae7e463          	bltu	a5,a4,16b8 <USBH_EnumHubDevice+0x1d0>
    1614:	650d                	lui	a0,0x3
    1616:	fd850513          	addi	a0,a0,-40 # 2fd8 <strlen+0x228>
    161a:	736010ef          	jal	ra,2d50 <puts>
    161e:	650d                	lui	a0,0x3
    1620:	eb850513          	addi	a0,a0,-328 # 2eb8 <strlen+0x108>
    1624:	708010ef          	jal	ra,2d2c <printf>
    1628:	4a15                	li	s4,5
    162a:	6b8d                	lui	s7,0x3
    162c:	00e10693          	addi	a3,sp,14
    1630:	3ec18613          	addi	a2,gp,1004 # 200016d4 <Com_Buf>
    1634:	85ce                	mv	a1,s3
    1636:	8526                	mv	a0,s1
    1638:	799000ef          	jal	ra,25d0 <HUB_GetClassDevDescr>
    163c:	842a                	mv	s0,a0
    163e:	12051163          	bnez	a0,1760 <USBH_EnumHubDevice+0x278>
    1642:	4981                	li	s3,0
    1644:	6a0d                	lui	s4,0x3
    1646:	a055                	j	16ea <USBH_EnumHubDevice+0x202>
    1648:	842a                	mv	s0,a0
    164a:	85aa                	mv	a1,a0
    164c:	650d                	lui	a0,0x3
    164e:	de050513          	addi	a0,a0,-544 # 2de0 <strlen+0x30>
    1652:	6da010ef          	jal	ra,2d2c <printf>
    1656:	8522                	mv	a0,s0
    1658:	0141                	addi	sp,sp,16
    165a:	d10ff06f          	j	b6a <__riscv_restore_10>
    165e:	008907b3          	add	a5,s2,s0
    1662:	238c                	lbu	a1,0(a5)
    1664:	dc8a0513          	addi	a0,s4,-568 # 2dc8 <strlen+0x18>
    1668:	0405                	addi	s0,s0,1
    166a:	6c2010ef          	jal	ra,2d2c <printf>
    166e:	b5dd                	j	1554 <USBH_EnumHubDevice+0x6c>
    1670:	650d                	lui	a0,0x3
    1672:	de050513          	addi	a0,a0,-544 # 2de0 <strlen+0x30>
    1676:	6b6010ef          	jal	ra,2d2c <printf>
    167a:	bdc5                	j	156a <USBH_EnumHubDevice+0x82>
    167c:	014907b3          	add	a5,s2,s4
    1680:	238c                	lbu	a1,0(a5)
    1682:	dc8b8513          	addi	a0,s7,-568 # 2dc8 <strlen+0x18>
    1686:	0a05                	addi	s4,s4,1
    1688:	6a4010ef          	jal	ra,2d2c <printf>
    168c:	b731                	j	1598 <USBH_EnumHubDevice+0xb0>
    168e:	650d                	lui	a0,0x3
    1690:	de050513          	addi	a0,a0,-544 # 2de0 <strlen+0x30>
    1694:	698010ef          	jal	ra,2d2c <printf>
    1698:	bf19                	j	15ae <USBH_EnumHubDevice+0xc6>
    169a:	014907b3          	add	a5,s2,s4
    169e:	238c                	lbu	a1,0(a5)
    16a0:	dc8b8513          	addi	a0,s7,-568
    16a4:	0a05                	addi	s4,s4,1
    16a6:	686010ef          	jal	ra,2d2c <printf>
    16aa:	b71d                	j	15d0 <USBH_EnumHubDevice+0xe8>
    16ac:	650d                	lui	a0,0x3
    16ae:	de050513          	addi	a0,a0,-544 # 2de0 <strlen+0x30>
    16b2:	67a010ef          	jal	ra,2d2c <printf>
    16b6:	bf05                	j	15e6 <USBH_EnumHubDevice+0xfe>
    16b8:	008907b3          	add	a5,s2,s0
    16bc:	238c                	lbu	a1,0(a5)
    16be:	dc8a0513          	addi	a0,s4,-568
    16c2:	0405                	addi	s0,s0,1
    16c4:	668010ef          	jal	ra,2d2c <printf>
    16c8:	b781                	j	1608 <USBH_EnumHubDevice+0x120>
    16ca:	650d                	lui	a0,0x3
    16cc:	de050513          	addi	a0,a0,-544 # 2de0 <strlen+0x30>
    16d0:	65c010ef          	jal	ra,2d2c <printf>
    16d4:	b7a9                	j	161e <USBH_EnumHubDevice+0x136>
    16d6:	013907b3          	add	a5,s2,s3
    16da:	238c                	lbu	a1,0(a5)
    16dc:	dc8a0513          	addi	a0,s4,-568
    16e0:	0985                	addi	s3,s3,1
    16e2:	64a010ef          	jal	ra,2d2c <printf>
    16e6:	0809c9b3          	zext.h	s3,s3
    16ea:	873c                	lhu	a5,14(sp)
    16ec:	fef9e5e3          	bltu	s3,a5,16d6 <USBH_EnumHubDevice+0x1ee>
    16f0:	650d                	lui	a0,0x3
    16f2:	fd850513          	addi	a0,a0,-40 # 2fd8 <strlen+0x228>
    16f6:	65a010ef          	jal	ra,2d50 <puts>
    16fa:	00294603          	lbu	a2,2(s2)
    16fe:	4791                	li	a5,4
    1700:	650d                	lui	a0,0x3
    1702:	0af65633          	minu	a2,a2,a5
    1706:	47fd                	li	a5,31
    1708:	02f487b3          	mul	a5,s1,a5
    170c:	85a6                	mv	a1,s1
    170e:	ec850513          	addi	a0,a0,-312 # 2ec8 <strlen+0x118>
    1712:	4981                	li	s3,0
    1714:	4905                	li	s2,1
    1716:	00fa8a33          	add	s4,s5,a5
    171a:	00ca0323          	sb	a2,6(s4)
    171e:	4a91                	li	s5,4
    1720:	60c010ef          	jal	ra,2d2c <printf>
    1724:	006a4783          	lbu	a5,6(s4)
    1728:	f327e7e3          	bltu	a5,s2,1656 <USBH_EnumHubDevice+0x16e>
    172c:	004a4583          	lbu	a1,4(s4)
    1730:	46a1                	li	a3,8
    1732:	0ff97613          	zext.b	a2,s2
    1736:	8526                	mv	a0,s1
    1738:	66d000ef          	jal	ra,25a4 <HUB_SetPortFeature>
    173c:	cd11                	beqz	a0,1758 <USBH_EnumHubDevice+0x270>
    173e:	0985                	addi	s3,s3,1
    1740:	4515                	li	a0,5
    1742:	197d                	addi	s2,s2,-1
    1744:	0ff9f993          	zext.b	s3,s3
    1748:	1ffff097          	auipc	ra,0x1ffff
    174c:	f9c080e7          	jalr	-100(ra) # 200006e4 <mDelaymS>
    1750:	08094933          	zext.h	s2,s2
    1754:	033ae063          	bltu	s5,s3,1774 <USBH_EnumHubDevice+0x28c>
    1758:	0905                	addi	s2,s2,1
    175a:	08094933          	zext.h	s2,s2
    175e:	b7d9                	j	1724 <USBH_EnumHubDevice+0x23c>
    1760:	1a7d                	addi	s4,s4,-1
    1762:	85a2                	mv	a1,s0
    1764:	de0b8513          	addi	a0,s7,-544
    1768:	0ffa7a13          	zext.b	s4,s4
    176c:	5c0010ef          	jal	ra,2d2c <printf>
    1770:	ea0a1ee3          	bnez	s4,162c <USBH_EnumHubDevice+0x144>
    1774:	0fe00413          	li	s0,254
    1778:	bdf9                	j	1656 <USBH_EnumHubDevice+0x16e>

0000177a <KB_AnalyzeKeyValue>:
    177a:	bb0ff2ef          	jal	t0,b2a <__riscv_save_12>
    177e:	04a00793          	li	a5,74
    1782:	02f585b3          	mul	a1,a1,a5
    1786:	12a00793          	li	a5,298
    178a:	20001437          	lui	s0,0x20001
    178e:	af040413          	addi	s0,s0,-1296 # 20000af0 <HostCtl>
    1792:	8a32                	mv	s4,a2
    1794:	8ab6                	mv	s5,a3
    1796:	4c05                	li	s8,1
    1798:	4c89                	li	s9,2
    179a:	4d0d                	li	s10,3
    179c:	02f50533          	mul	a0,a0,a5
    17a0:	95aa                	add	a1,a1,a0
    17a2:	942e                	add	s0,s0,a1
    17a4:	04644b03          	lbu	s6,70(s0)
    17a8:	04944983          	lbu	s3,73(s0)
    17ac:	04744b83          	lbu	s7,71(s0)
    17b0:	895a                	mv	s2,s6
    17b2:	416907b3          	sub	a5,s2,s6
    17b6:	04944483          	lbu	s1,73(s0)
    17ba:	0ff7fd93          	zext.b	s11,a5
    17be:	012bfa63          	bgeu	s7,s2,17d2 <KB_AnalyzeKeyValue+0x58>
    17c2:	409989b3          	sub	s3,s3,s1
    17c6:	013039b3          	snez	s3,s3
    17ca:	05340523          	sb	s3,74(s0)
    17ce:	b98ff06f          	j	b66 <__riscv_restore_12>
    17d2:	03891163          	bne	s2,s8,17f4 <KB_AnalyzeKeyValue+0x7a>
    17d6:	8656                	mv	a2,s5
    17d8:	05300593          	li	a1,83
    17dc:	8552                	mv	a0,s4
    17de:	5ba010ef          	jal	ra,2d98 <memchr>
    17e2:	c509                	beqz	a0,17ec <KB_AnalyzeKeyValue+0x72>
    17e4:	69b494b3          	binv	s1,s1,s11
    17e8:	049404a3          	sb	s1,73(s0)
    17ec:	0905                	addi	s2,s2,1
    17ee:	0ff97913          	zext.b	s2,s2
    17f2:	b7c1                	j	17b2 <KB_AnalyzeKeyValue+0x38>
    17f4:	01991663          	bne	s2,s9,1800 <KB_AnalyzeKeyValue+0x86>
    17f8:	8656                	mv	a2,s5
    17fa:	03900593          	li	a1,57
    17fe:	bff9                	j	17dc <KB_AnalyzeKeyValue+0x62>
    1800:	ffa916e3          	bne	s2,s10,17ec <KB_AnalyzeKeyValue+0x72>
    1804:	8656                	mv	a2,s5
    1806:	04700593          	li	a1,71
    180a:	bfc9                	j	17dc <KB_AnalyzeKeyValue+0x62>

0000180c <KB_SetReport>:
    180c:	b4eff2ef          	jal	t0,b5a <__riscv_save_0>
    1810:	8832                	mv	a6,a2
    1812:	04a00713          	li	a4,74
    1816:	8636                	mv	a2,a3
    1818:	12a00893          	li	a7,298
    181c:	031588b3          	mul	a7,a1,a7
    1820:	200017b7          	lui	a5,0x20001
    1824:	af078693          	addi	a3,a5,-1296 # 20000af0 <HostCtl>
    1828:	1141                	addi	sp,sp,-16
    182a:	02e60733          	mul	a4,a2,a4
    182e:	9746                	add	a4,a4,a7
    1830:	96ba                	add	a3,a3,a4
    1832:	0446c303          	lbu	t1,68(a3)
    1836:	0496c883          	lbu	a7,73(a3)
    183a:	af078713          	addi	a4,a5,-1296
    183e:	04030363          	beqz	t1,1884 <KB_SetReport+0x78>
    1842:	0456c783          	lbu	a5,69(a3)
    1846:	011106a3          	sb	a7,13(sp)
    184a:	865c                	sb	a5,12(sp)
    184c:	4789                	li	a5,2
    184e:	04a00693          	li	a3,74
    1852:	12a00893          	li	a7,298
    1856:	02d606b3          	mul	a3,a2,a3
    185a:	877c                	sh	a5,14(sp)
    185c:	031588b3          	mul	a7,a1,a7
    1860:	96c6                	add	a3,a3,a7
    1862:	9736                	add	a4,a4,a3
    1864:	04874683          	lbu	a3,72(a4)
    1868:	4705                	li	a4,1
    186a:	02e69163          	bne	a3,a4,188c <KB_SetReport+0x80>
    186e:	00e10713          	addi	a4,sp,14
    1872:	0074                	addi	a3,sp,12
    1874:	85c2                	mv	a1,a6
    1876:	4cb000ef          	jal	ra,2540 <HID_SetReport>
    187a:	872a                	mv	a4,a0
    187c:	853a                	mv	a0,a4
    187e:	0141                	addi	sp,sp,16
    1880:	afeff06f          	j	b7e <__riscv_restore_0>
    1884:	01110623          	sb	a7,12(sp)
    1888:	4785                	li	a5,1
    188a:	b7d1                	j	184e <KB_SetReport+0x42>
    188c:	0ff00813          	li	a6,255
    1890:	4701                	li	a4,0
    1892:	ff0695e3          	bne	a3,a6,187c <KB_SetReport+0x70>
    1896:	0078                	addi	a4,sp,12
    1898:	4681                	li	a3,0
    189a:	c70ff0ef          	jal	ra,d0a <USBH_SendHidData>
    189e:	bff1                	j	187a <KB_SetReport+0x6e>

000018a0 <USBH_EnumHidDevice>:
    18a0:	a92ff2ef          	jal	t0,b32 <__riscv_save_10>
    18a4:	892a                	mv	s2,a0
    18a6:	650d                	lui	a0,0x3
    18a8:	eec50513          	addi	a0,a0,-276 # 2eec <strlen+0x13c>
    18ac:	8a2e                	mv	s4,a1
    18ae:	89b2                	mv	s3,a2
    18b0:	4a0010ef          	jal	ra,2d50 <puts>
    18b4:	650d                	lui	a0,0x3
    18b6:	e5450513          	addi	a0,a0,-428 # 2e54 <strlen+0xa4>
    18ba:	472010ef          	jal	ra,2d2c <printf>
    18be:	85d2                	mv	a1,s4
    18c0:	854a                	mv	a0,s2
    18c2:	e92ff0ef          	jal	ra,f54 <KM_AnalyzeConfigDesc>
    18c6:	8aaa                	mv	s5,a0
    18c8:	1c051963          	bnez	a0,1a9a <USBH_EnumHidDevice+0x1fa>
    18cc:	650d                	lui	a0,0x3
    18ce:	dec50513          	addi	a0,a0,-532 # 2dec <strlen+0x3c>
    18d2:	47e010ef          	jal	ra,2d50 <puts>
    18d6:	3ec18793          	addi	a5,gp,1004 # 200016d4 <Com_Buf>
    18da:	23fc                	lbu	a5,6(a5)
    18dc:	3ec18413          	addi	s0,gp,1004 # 200016d4 <Com_Buf>
    18e0:	c79d                	beqz	a5,190e <USBH_EnumHidDevice+0x6e>
    18e2:	650d                	lui	a0,0x3
    18e4:	e6850513          	addi	a0,a0,-408 # 2e68 <strlen+0xb8>
    18e8:	444010ef          	jal	ra,2d2c <printf>
    18ec:	2070                	lbu	a2,6(s0)
    18ee:	85ce                	mv	a1,s3
    18f0:	854a                	mv	a0,s2
    18f2:	ba4ff0ef          	jal	ra,c96 <USBH_GetStrDescr>
    18f6:	84aa                	mv	s1,a0
    18f8:	10051263          	bnez	a0,19fc <USBH_EnumHidDevice+0x15c>
    18fc:	6b0d                	lui	s6,0x3
    18fe:	201c                	lbu	a5,0(s0)
    1900:	0ef4e363          	bltu	s1,a5,19e6 <USBH_EnumHidDevice+0x146>
    1904:	650d                	lui	a0,0x3
    1906:	fd850513          	addi	a0,a0,-40 # 2fd8 <strlen+0x228>
    190a:	446010ef          	jal	ra,2d50 <puts>
    190e:	864e                	mv	a2,s3
    1910:	85d2                	mv	a1,s4
    1912:	854a                	mv	a0,s2
    1914:	a25ff0ef          	jal	ra,1338 <KM_DealHidReportDesc>
    1918:	20002b37          	lui	s6,0x20002
    191c:	ad4b0793          	addi	a5,s6,-1324 # 20001ad4 <DevDesc_Buf>
    1920:	27fc                	lbu	a5,14(a5)
    1922:	ad4b0b13          	addi	s6,s6,-1324
    1926:	cb85                	beqz	a5,1956 <USBH_EnumHidDevice+0xb6>
    1928:	650d                	lui	a0,0x3
    192a:	e7c50513          	addi	a0,a0,-388 # 2e7c <strlen+0xcc>
    192e:	3fe010ef          	jal	ra,2d2c <printf>
    1932:	00eb4603          	lbu	a2,14(s6)
    1936:	85ce                	mv	a1,s3
    1938:	854a                	mv	a0,s2
    193a:	b5cff0ef          	jal	ra,c96 <USBH_GetStrDescr>
    193e:	84aa                	mv	s1,a0
    1940:	0e051063          	bnez	a0,1a20 <USBH_EnumHidDevice+0x180>
    1944:	6b8d                	lui	s7,0x3
    1946:	201c                	lbu	a5,0(s0)
    1948:	0cf4e163          	bltu	s1,a5,1a0a <USBH_EnumHidDevice+0x16a>
    194c:	650d                	lui	a0,0x3
    194e:	fd850513          	addi	a0,a0,-40 # 2fd8 <strlen+0x228>
    1952:	3fe010ef          	jal	ra,2d50 <puts>
    1956:	00fb4783          	lbu	a5,15(s6)
    195a:	cb85                	beqz	a5,198a <USBH_EnumHidDevice+0xea>
    195c:	650d                	lui	a0,0x3
    195e:	e9050513          	addi	a0,a0,-368 # 2e90 <strlen+0xe0>
    1962:	3ca010ef          	jal	ra,2d2c <printf>
    1966:	00fb4603          	lbu	a2,15(s6)
    196a:	85ce                	mv	a1,s3
    196c:	854a                	mv	a0,s2
    196e:	b28ff0ef          	jal	ra,c96 <USBH_GetStrDescr>
    1972:	84aa                	mv	s1,a0
    1974:	0c051863          	bnez	a0,1a44 <USBH_EnumHidDevice+0x1a4>
    1978:	6b8d                	lui	s7,0x3
    197a:	201c                	lbu	a5,0(s0)
    197c:	0af4e963          	bltu	s1,a5,1a2e <USBH_EnumHidDevice+0x18e>
    1980:	650d                	lui	a0,0x3
    1982:	fd850513          	addi	a0,a0,-40 # 2fd8 <strlen+0x228>
    1986:	3ca010ef          	jal	ra,2d50 <puts>
    198a:	010b4783          	lbu	a5,16(s6)
    198e:	c79d                	beqz	a5,19bc <USBH_EnumHidDevice+0x11c>
    1990:	650d                	lui	a0,0x3
    1992:	ea450513          	addi	a0,a0,-348 # 2ea4 <strlen+0xf4>
    1996:	396010ef          	jal	ra,2d2c <printf>
    199a:	010b4603          	lbu	a2,16(s6)
    199e:	85ce                	mv	a1,s3
    19a0:	854a                	mv	a0,s2
    19a2:	af4ff0ef          	jal	ra,c96 <USBH_GetStrDescr>
    19a6:	84aa                	mv	s1,a0
    19a8:	e161                	bnez	a0,1a68 <USBH_EnumHidDevice+0x1c8>
    19aa:	6b0d                	lui	s6,0x3
    19ac:	201c                	lbu	a5,0(s0)
    19ae:	0af4e263          	bltu	s1,a5,1a52 <USBH_EnumHidDevice+0x1b2>
    19b2:	650d                	lui	a0,0x3
    19b4:	fd850513          	addi	a0,a0,-40 # 2fd8 <strlen+0x228>
    19b8:	398010ef          	jal	ra,2d50 <puts>
    19bc:	12a00b13          	li	s6,298
    19c0:	036a0b33          	mul	s6,s4,s6
    19c4:	200014b7          	lui	s1,0x20001
    19c8:	af048493          	addi	s1,s1,-1296 # 20000af0 <HostCtl>
    19cc:	4401                	li	s0,0
    19ce:	04a00c13          	li	s8,74
    19d2:	4c85                	li	s9,1
    19d4:	01648bb3          	add	s7,s1,s6
    19d8:	000bc783          	lbu	a5,0(s7) # 3000 <strlen+0x250>
    19dc:	08f46d63          	bltu	s0,a5,1a76 <USBH_EnumHidDevice+0x1d6>
    19e0:	8556                	mv	a0,s5
    19e2:	988ff06f          	j	b6a <__riscv_restore_10>
    19e6:	009407b3          	add	a5,s0,s1
    19ea:	238c                	lbu	a1,0(a5)
    19ec:	dc8b0513          	addi	a0,s6,-568 # 2dc8 <strlen+0x18>
    19f0:	0485                	addi	s1,s1,1
    19f2:	33a010ef          	jal	ra,2d2c <printf>
    19f6:	0ff4f493          	zext.b	s1,s1
    19fa:	b711                	j	18fe <USBH_EnumHidDevice+0x5e>
    19fc:	85aa                	mv	a1,a0
    19fe:	650d                	lui	a0,0x3
    1a00:	de050513          	addi	a0,a0,-544 # 2de0 <strlen+0x30>
    1a04:	328010ef          	jal	ra,2d2c <printf>
    1a08:	b719                	j	190e <USBH_EnumHidDevice+0x6e>
    1a0a:	009407b3          	add	a5,s0,s1
    1a0e:	238c                	lbu	a1,0(a5)
    1a10:	dc8b8513          	addi	a0,s7,-568
    1a14:	0485                	addi	s1,s1,1
    1a16:	316010ef          	jal	ra,2d2c <printf>
    1a1a:	0ff4f493          	zext.b	s1,s1
    1a1e:	b725                	j	1946 <USBH_EnumHidDevice+0xa6>
    1a20:	85aa                	mv	a1,a0
    1a22:	650d                	lui	a0,0x3
    1a24:	de050513          	addi	a0,a0,-544 # 2de0 <strlen+0x30>
    1a28:	304010ef          	jal	ra,2d2c <printf>
    1a2c:	b72d                	j	1956 <USBH_EnumHidDevice+0xb6>
    1a2e:	009407b3          	add	a5,s0,s1
    1a32:	238c                	lbu	a1,0(a5)
    1a34:	dc8b8513          	addi	a0,s7,-568
    1a38:	0485                	addi	s1,s1,1
    1a3a:	2f2010ef          	jal	ra,2d2c <printf>
    1a3e:	0ff4f493          	zext.b	s1,s1
    1a42:	bf25                	j	197a <USBH_EnumHidDevice+0xda>
    1a44:	85aa                	mv	a1,a0
    1a46:	650d                	lui	a0,0x3
    1a48:	de050513          	addi	a0,a0,-544 # 2de0 <strlen+0x30>
    1a4c:	2e0010ef          	jal	ra,2d2c <printf>
    1a50:	bf2d                	j	198a <USBH_EnumHidDevice+0xea>
    1a52:	009407b3          	add	a5,s0,s1
    1a56:	238c                	lbu	a1,0(a5)
    1a58:	dc8b0513          	addi	a0,s6,-568
    1a5c:	0485                	addi	s1,s1,1
    1a5e:	2ce010ef          	jal	ra,2d2c <printf>
    1a62:	0ff4f493          	zext.b	s1,s1
    1a66:	b799                	j	19ac <USBH_EnumHidDevice+0x10c>
    1a68:	85aa                	mv	a1,a0
    1a6a:	650d                	lui	a0,0x3
    1a6c:	de050513          	addi	a0,a0,-544 # 2de0 <strlen+0x30>
    1a70:	2bc010ef          	jal	ra,2d2c <printf>
    1a74:	b7a1                	j	19bc <USBH_EnumHidDevice+0x11c>
    1a76:	038407b3          	mul	a5,s0,s8
    1a7a:	97da                	add	a5,a5,s6
    1a7c:	97a6                	add	a5,a5,s1
    1a7e:	23b8                	lbu	a4,2(a5)
    1a80:	01971963          	bne	a4,s9,1a92 <USBH_EnumHidDevice+0x1f2>
    1a84:	86a2                	mv	a3,s0
    1a86:	864e                	mv	a2,s3
    1a88:	85d2                	mv	a1,s4
    1a8a:	854a                	mv	a0,s2
    1a8c:	040784a3          	sb	zero,73(a5)
    1a90:	3bb5                	jal	180c <KB_SetReport>
    1a92:	0405                	addi	s0,s0,1
    1a94:	0ff47413          	zext.b	s0,s0
    1a98:	b781                	j	19d8 <USBH_EnumHidDevice+0x138>
    1a9a:	85aa                	mv	a1,a0
    1a9c:	650d                	lui	a0,0x3
    1a9e:	de050513          	addi	a0,a0,-544 # 2de0 <strlen+0x30>
    1aa2:	28a010ef          	jal	ra,2d2c <printf>
    1aa6:	bf2d                	j	19e0 <USBH_EnumHidDevice+0x140>

00001aa8 <USBH_MainDeal>:
    1aa8:	882ff2ef          	jal	t0,b2a <__riscv_save_12>
    1aac:	3ac18493          	addi	s1,gp,940 # 20001694 <RootHubDev>
    1ab0:	1101                	addi	sp,sp,-32
    1ab2:	3ac18913          	addi	s2,gp,940 # 20001694 <RootHubDev>
    1ab6:	4a01                	li	s4,0
    1ab8:	4a85                	li	s5,1
    1aba:	0ffa7993          	zext.b	s3,s4
    1abe:	854e                	mv	a0,s3
    1ac0:	8f0ff0ef          	jal	ra,bb0 <USBH_CheckRootHubPortStatus>
    1ac4:	842a                	mv	s0,a0
    1ac6:	15551663          	bne	a0,s5,1c12 <USBH_MainDeal+0x16a>
    1aca:	650d                	lui	a0,0x3
    1acc:	85d2                	mv	a1,s4
    1ace:	ef850513          	addi	a0,a0,-264 # 2ef8 <strlen+0x148>
    1ad2:	25a010ef          	jal	ra,2d2c <printf>
    1ad6:	4795                	li	a5,5
    1ad8:	02f987b3          	mul	a5,s3,a5
    1adc:	01590023          	sb	s5,0(s2)
    1ae0:	854e                	mv	a0,s3
    1ae2:	00f902a3          	sb	a5,5(s2)
    1ae6:	a94ff0ef          	jal	ra,d7a <USBH_EnumRootDevice>
    1aea:	842a                	mv	s0,a0
    1aec:	10051863          	bnez	a0,1bfc <USBH_MainDeal+0x154>
    1af0:	00194783          	lbu	a5,1(s2)
    1af4:	470d                	li	a4,3
    1af6:	08e79463          	bne	a5,a4,1b7e <USBH_MainDeal+0xd6>
    1afa:	650d                	lui	a0,0x3
    1afc:	f1050513          	addi	a0,a0,-240 # 2f10 <strlen+0x160>
    1b00:	22c010ef          	jal	ra,2d2c <printf>
    1b04:	00494603          	lbu	a2,4(s2)
    1b08:	00594583          	lbu	a1,5(s2)
    1b0c:	854e                	mv	a0,s3
    1b0e:	3b49                	jal	18a0 <USBH_EnumHidDevice>
    1b10:	89aa                	mv	s3,a0
    1b12:	650d                	lui	a0,0x3
    1b14:	f2850513          	addi	a0,a0,-216 # 2f28 <strlen+0x178>
    1b18:	214010ef          	jal	ra,2d2c <printf>
    1b1c:	06099f63          	bnez	s3,1b9a <USBH_MainDeal+0xf2>
    1b20:	650d                	lui	a0,0x3
    1b22:	dec50513          	addi	a0,a0,-532 # 2dec <strlen+0x3c>
    1b26:	22a010ef          	jal	ra,2d50 <puts>
    1b2a:	478d                	li	a5,3
    1b2c:	00f90023          	sb	a5,0(s2)
    1b30:	097d                	addi	s2,s2,31
    1b32:	040a0463          	beqz	s4,1b7a <USBH_MainDeal+0xd2>
    1b36:	4981                	li	s3,0
    1b38:	209c                	lbu	a5,0(s1)
    1b3a:	4709                	li	a4,2
    1b3c:	1cf77163          	bgeu	a4,a5,1cfe <USBH_MainDeal+0x256>
    1b40:	309c                	lbu	a5,1(s1)
    1b42:	470d                	li	a4,3
    1b44:	1ae79d63          	bne	a5,a4,1cfe <USBH_MainDeal+0x256>
    1b48:	30dc                	lbu	a5,5(s1)
    1b4a:	12a00b93          	li	s7,298
    1b4e:	20001b37          	lui	s6,0x20001
    1b52:	03778bb3          	mul	s7,a5,s7
    1b56:	af0b0b13          	addi	s6,s6,-1296 # 20000af0 <HostCtl>
    1b5a:	c63e                	sw	a5,12(sp)
    1b5c:	4901                	li	s2,0
    1b5e:	017b0cb3          	add	s9,s6,s7
    1b62:	000cc783          	lbu	a5,0(s9)
    1b66:	18f97c63          	bgeu	s2,a5,1cfe <USBH_MainDeal+0x256>
    1b6a:	04a00793          	li	a5,74
    1b6e:	02f90ab3          	mul	s5,s2,a5
    1b72:	4a01                	li	s4,0
    1b74:	9ade                	add	s5,s5,s7
    1b76:	9ada                	add	s5,s5,s6
    1b78:	a2a1                	j	1cc0 <USBH_MainDeal+0x218>
    1b7a:	4a05                	li	s4,1
    1b7c:	bf3d                	j	1aba <USBH_MainDeal+0x12>
    1b7e:	4725                	li	a4,9
    1b80:	02e79c63          	bne	a5,a4,1bb8 <USBH_MainDeal+0x110>
    1b84:	650d                	lui	a0,0x3
    1b86:	f4050513          	addi	a0,a0,-192 # 2f40 <strlen+0x190>
    1b8a:	1a2010ef          	jal	ra,2d2c <printf>
    1b8e:	00494583          	lbu	a1,4(s2)
    1b92:	854e                	mv	a0,s3
    1b94:	955ff0ef          	jal	ra,14e8 <USBH_EnumHubDevice>
    1b98:	bfa5                	j	1b10 <USBH_MainDeal+0x68>
    1b9a:	47d9                	li	a5,22
    1b9c:	00f99463          	bne	s3,a5,1ba4 <USBH_MainDeal+0xfc>
    1ba0:	844e                	mv	s0,s3
    1ba2:	b779                	j	1b30 <USBH_MainDeal+0x88>
    1ba4:	650d                	lui	a0,0x3
    1ba6:	85ce                	mv	a1,s3
    1ba8:	de050513          	addi	a0,a0,-544 # 2de0 <strlen+0x30>
    1bac:	180010ef          	jal	ra,2d2c <printf>
    1bb0:	4789                	li	a5,2
    1bb2:	00f90023          	sb	a5,0(s2)
    1bb6:	b7ed                	j	1ba0 <USBH_MainDeal+0xf8>
    1bb8:	650d                	lui	a0,0x3
    1bba:	f5850513          	addi	a0,a0,-168 # 2f58 <strlen+0x1a8>
    1bbe:	16e010ef          	jal	ra,2d2c <printf>
    1bc2:	00194783          	lbu	a5,1(s2)
    1bc6:	4721                	li	a4,8
    1bc8:	00e78d63          	beq	a5,a4,1be2 <USBH_MainDeal+0x13a>
    1bcc:	0ff00713          	li	a4,255
    1bd0:	02e78263          	beq	a5,a4,1bf4 <USBH_MainDeal+0x14c>
    1bd4:	471d                	li	a4,7
    1bd6:	00e79b63          	bne	a5,a4,1bec <USBH_MainDeal+0x144>
    1bda:	650d                	lui	a0,0x3
    1bdc:	f7450513          	addi	a0,a0,-140 # 2f74 <strlen+0x1c4>
    1be0:	a021                	j	1be8 <USBH_MainDeal+0x140>
    1be2:	650d                	lui	a0,0x3
    1be4:	f6850513          	addi	a0,a0,-152 # 2f68 <strlen+0x1b8>
    1be8:	144010ef          	jal	ra,2d2c <printf>
    1bec:	650d                	lui	a0,0x3
    1bee:	f8c50513          	addi	a0,a0,-116 # 2f8c <strlen+0x1dc>
    1bf2:	bf15                	j	1b26 <USBH_MainDeal+0x7e>
    1bf4:	650d                	lui	a0,0x3
    1bf6:	f8050513          	addi	a0,a0,-128 # 2f80 <strlen+0x1d0>
    1bfa:	b7fd                	j	1be8 <USBH_MainDeal+0x140>
    1bfc:	47d9                	li	a5,22
    1bfe:	f2f509e3          	beq	a0,a5,1b30 <USBH_MainDeal+0x88>
    1c02:	85aa                	mv	a1,a0
    1c04:	650d                	lui	a0,0x3
    1c06:	f9850513          	addi	a0,a0,-104 # 2f98 <strlen+0x1e8>
    1c0a:	122010ef          	jal	ra,2d2c <printf>
    1c0e:	4789                	li	a5,2
    1c10:	bf31                	j	1b2c <USBH_MainDeal+0x84>
    1c12:	f0051fe3          	bnez	a0,1b30 <USBH_MainDeal+0x88>
    1c16:	650d                	lui	a0,0x3
    1c18:	85d2                	mv	a1,s4
    1c1a:	fb850513          	addi	a0,a0,-72 # 2fb8 <strlen+0x208>
    1c1e:	10e010ef          	jal	ra,2d2c <printf>
    1c22:	467d                	li	a2,31
    1c24:	00594983          	lbu	s3,5(s2)
    1c28:	4581                	li	a1,0
    1c2a:	854a                	mv	a0,s2
    1c2c:	f75fe0ef          	jal	ra,ba0 <memset>
    1c30:	12a00793          	li	a5,298
    1c34:	02f989b3          	mul	s3,s3,a5
    1c38:	20001537          	lui	a0,0x20001
    1c3c:	af050513          	addi	a0,a0,-1296 # 20000af0 <HostCtl>
    1c40:	12a00613          	li	a2,298
    1c44:	4581                	li	a1,0
    1c46:	954e                	add	a0,a0,s3
    1c48:	f59fe0ef          	jal	ra,ba0 <memset>
    1c4c:	b5d5                	j	1b30 <USBH_MainDeal+0x88>
    1c4e:	4985                	li	s3,1
    1c50:	b5e5                	j	1b38 <USBH_MainDeal+0x90>
    1c52:	014a8c33          	add	s8,s5,s4
    1c56:	026c4783          	lbu	a5,38(s8)
    1c5a:	022c4703          	lbu	a4,34(s8)
    1c5e:	04e7ee63          	bltu	a5,a4,1cba <USBH_MainDeal+0x212>
    1c62:	02e7f7b3          	remu	a5,a5,a4
    1c66:	45b2                	lw	a1,12(sp)
    1c68:	3ec18713          	addi	a4,gp,1004 # 200016d4 <Com_Buf>
    1c6c:	86d2                	mv	a3,s4
    1c6e:	864a                	mv	a2,s2
    1c70:	854e                	mv	a0,s3
    1c72:	02fc0323          	sb	a5,38(s8)
    1c76:	01e10793          	addi	a5,sp,30
    1c7a:	834ff0ef          	jal	ra,cae <USBH_GetHidData>
    1c7e:	842a                	mv	s0,a0
    1c80:	e93d                	bnez	a0,1cf6 <USBH_MainDeal+0x24e>
    1c82:	4401                	li	s0,0
    1c84:	a829                	j	1c9e <USBH_MainDeal+0x1f6>
    1c86:	3ec18793          	addi	a5,gp,1004 # 200016d4 <Com_Buf>
    1c8a:	97a2                	add	a5,a5,s0
    1c8c:	238c                	lbu	a1,0(a5)
    1c8e:	678d                	lui	a5,0x3
    1c90:	dc878513          	addi	a0,a5,-568 # 2dc8 <strlen+0x18>
    1c94:	0405                	addi	s0,s0,1
    1c96:	096010ef          	jal	ra,2d2c <printf>
    1c9a:	08044433          	zext.h	s0,s0
    1c9e:	87bc                	lhu	a5,30(sp)
    1ca0:	fef463e3          	bltu	s0,a5,1c86 <USBH_MainDeal+0x1de>
    1ca4:	678d                	lui	a5,0x3
    1ca6:	fd878513          	addi	a0,a5,-40 # 2fd8 <strlen+0x228>
    1caa:	0a6010ef          	jal	ra,2d50 <puts>
    1cae:	002ac703          	lbu	a4,2(s5)
    1cb2:	4785                	li	a5,1
    1cb4:	02f70163          	beq	a4,a5,1cd6 <USBH_MainDeal+0x22e>
    1cb8:	4401                	li	s0,0
    1cba:	0a05                	addi	s4,s4,1
    1cbc:	0ffa7a13          	zext.b	s4,s4
    1cc0:	008ac783          	lbu	a5,8(s5)
    1cc4:	f8fa67e3          	bltu	s4,a5,1c52 <USBH_MainDeal+0x1aa>
    1cc8:	47d9                	li	a5,22
    1cca:	02f40963          	beq	s0,a5,1cfc <USBH_MainDeal+0x254>
    1cce:	0905                	addi	s2,s2,1
    1cd0:	0ff97913          	zext.b	s2,s2
    1cd4:	b579                	j	1b62 <USBH_MainDeal+0xba>
    1cd6:	87b4                	lhu	a3,30(sp)
    1cd8:	4532                	lw	a0,12(sp)
    1cda:	3ec18613          	addi	a2,gp,1004 # 200016d4 <Com_Buf>
    1cde:	85ca                	mv	a1,s2
    1ce0:	a9bff0ef          	jal	ra,177a <KB_AnalyzeKeyValue>
    1ce4:	04aac783          	lbu	a5,74(s5)
    1ce8:	dbe1                	beqz	a5,1cb8 <USBH_MainDeal+0x210>
    1cea:	20d0                	lbu	a2,4(s1)
    1cec:	45b2                	lw	a1,12(sp)
    1cee:	86ca                	mv	a3,s2
    1cf0:	854e                	mv	a0,s3
    1cf2:	3e29                	jal	180c <KB_SetReport>
    1cf4:	b7d1                	j	1cb8 <USBH_MainDeal+0x210>
    1cf6:	4dd9                	li	s11,22
    1cf8:	01b51963          	bne	a0,s11,1d0a <USBH_MainDeal+0x262>
    1cfc:	4459                	li	s0,22
    1cfe:	04fd                	addi	s1,s1,31
    1d00:	f40987e3          	beqz	s3,1c4e <USBH_MainDeal+0x1a6>
    1d04:	6105                	addi	sp,sp,32
    1d06:	e61fe06f          	j	b66 <__riscv_restore_12>
    1d0a:	02e00793          	li	a5,46
    1d0e:	faf516e3          	bne	a0,a5,1cba <USBH_MainDeal+0x212>
    1d12:	678d                	lui	a5,0x3
    1d14:	fd078513          	addi	a0,a5,-48 # 2fd0 <strlen+0x220>
    1d18:	038010ef          	jal	ra,2d50 <puts>
    1d1c:	009c4583          	lbu	a1,9(s8)
    1d20:	854e                	mv	a0,s3
    1d22:	0805e593          	ori	a1,a1,128
    1d26:	840ff0ef          	jal	ra,d66 <USBH_ClearEndpStall>
    1d2a:	46b2                	lw	a3,12(sp)
    1d2c:	02500793          	li	a5,37
    1d30:	09500713          	li	a4,149
    1d34:	02e68733          	mul	a4,a3,a4
    1d38:	02f907b3          	mul	a5,s2,a5
    1d3c:	97ba                	add	a5,a5,a4
    1d3e:	97d2                	add	a5,a5,s4
    1d40:	2167a7b3          	sh1add	a5,a5,s6
    1d44:	00079d23          	sh	zero,26(a5)
    1d48:	001cc783          	lbu	a5,1(s9)
    1d4c:	4725                	li	a4,9
    1d4e:	0785                	addi	a5,a5,1
    1d50:	0ff7f793          	zext.b	a5,a5
    1d54:	00fc80a3          	sb	a5,1(s9)
    1d58:	f6f771e3          	bgeu	a4,a5,1cba <USBH_MainDeal+0x212>
    1d5c:	467d                	li	a2,31
    1d5e:	4581                	li	a1,0
    1d60:	8526                	mv	a0,s1
    1d62:	e3ffe0ef          	jal	ra,ba0 <memset>
    1d66:	854e                	mv	a0,s3
    1d68:	812ff0ef          	jal	ra,d7a <USBH_EnumRootDevice>
    1d6c:	842a                	mv	s0,a0
    1d6e:	e121                	bnez	a0,1dae <USBH_MainDeal+0x306>
    1d70:	009c4583          	lbu	a1,9(s8)
    1d74:	854e                	mv	a0,s3
    1d76:	0805e593          	ori	a1,a1,128
    1d7a:	fedfe0ef          	jal	ra,d66 <USBH_ClearEndpStall>
    1d7e:	4785                	li	a5,1
    1d80:	a09c                	sb	a5,0(s1)
    1d82:	4795                	li	a5,5
    1d84:	02f987b3          	mul	a5,s3,a5
    1d88:	12a00613          	li	a2,298
    1d8c:	4581                	li	a1,0
    1d8e:	017b0533          	add	a0,s6,s7
    1d92:	000c80a3          	sb	zero,1(s9)
    1d96:	b0dc                	sb	a5,5(s1)
    1d98:	e09fe0ef          	jal	ra,ba0 <memset>
    1d9c:	20d0                	lbu	a2,4(s1)
    1d9e:	45b2                	lw	a1,12(sp)
    1da0:	854e                	mv	a0,s3
    1da2:	3cfd                	jal	18a0 <USBH_EnumHidDevice>
    1da4:	842a                	mv	s0,a0
    1da6:	e501                	bnez	a0,1dae <USBH_MainDeal+0x306>
    1da8:	478d                	li	a5,3
    1daa:	a09c                	sb	a5,0(s1)
    1dac:	b731                	j	1cb8 <USBH_MainDeal+0x210>
    1dae:	f1b406e3          	beq	s0,s11,1cba <USBH_MainDeal+0x212>
    1db2:	4789                	li	a5,2
    1db4:	a09c                	sb	a5,0(s1)
    1db6:	b711                	j	1cba <USBH_MainDeal+0x212>

00001db8 <USBHS_Host_Init>:
    1db8:	400097b7          	lui	a5,0x40009
    1dbc:	cd39                	beqz	a0,1e1a <USBHS_Host_Init+0x62>
    1dbe:	4711                	li	a4,4
    1dc0:	20e78023          	sb	a4,512(a5) # 40009200 <_eusrstack+0x1ffe9200>
    1dc4:	400016b7          	lui	a3,0x40001
    1dc8:	2eba                	lhu	a4,26(a3)
    1dca:	02076713          	ori	a4,a4,32
    1dce:	aeba                	sh	a4,26(a3)
    1dd0:	4725                	li	a4,9
    1dd2:	10e78023          	sb	a4,256(a5)
    1dd6:	20002737          	lui	a4,0x20002
    1dda:	12878693          	addi	a3,a5,296
    1dde:	ae870713          	addi	a4,a4,-1304 # 20001ae8 <TxBuffer>
    1de2:	c298                	sw	a4,0(a3)
    1de4:	20002737          	lui	a4,0x20002
    1de8:	12478693          	addi	a3,a5,292
    1dec:	b2870713          	addi	a4,a4,-1240 # 20001b28 <RxBuffer>
    1df0:	c298                	sw	a4,0(a3)
    1df2:	12078713          	addi	a4,a5,288
    1df6:	20000693          	li	a3,512
    1dfa:	c314                	sw	a3,0(a4)
    1dfc:	f8100713          	li	a4,-127
    1e00:	12e78823          	sb	a4,304(a5)
    1e04:	11478693          	addi	a3,a5,276
    1e08:	4298                	lw	a4,0(a3)
    1e0a:	29871713          	bseti	a4,a4,0x18
    1e0e:	c298                	sw	a4,0(a3)
    1e10:	03800713          	li	a4,56
    1e14:	10e78023          	sb	a4,256(a5)
    1e18:	8082                	ret
    1e1a:	2007c703          	lbu	a4,512(a5)
    1e1e:	400016b7          	lui	a3,0x40001
    1e22:	0fb77713          	andi	a4,a4,251
    1e26:	20e78023          	sb	a4,512(a5)
    1e2a:	4e98                	lw	a4,24(a3)
    1e2c:	fdf77713          	andi	a4,a4,-33
    1e30:	ce98                	sw	a4,24(a3)
    1e32:	471d                	li	a4,7
    1e34:	b7c5                	j	1e14 <USBHS_Host_Init+0x5c>

00001e36 <USBHSH_CheckRootHubPortStatus>:
    1e36:	40009737          	lui	a4,0x40009
    1e3a:	13674783          	lbu	a5,310(a4) # 40009136 <_eusrstack+0x1ffe9136>
    1e3e:	86aa                	mv	a3,a0
    1e40:	0017f513          	andi	a0,a5,1
    1e44:	c10d                	beqz	a0,1e66 <USBHSH_CheckRootHubPortStatus+0x30>
    1e46:	4785                	li	a5,1
    1e48:	12f70b23          	sb	a5,310(a4)
    1e4c:	13475783          	lhu	a5,308(a4)
    1e50:	8b85                	andi	a5,a5,1
    1e52:	cf81                	beqz	a5,1e6a <USBHSH_CheckRootHubPortStatus+0x34>
    1e54:	ce81                	beqz	a3,1e6c <USBHSH_CheckRootHubPortStatus+0x36>
    1e56:	4789                	li	a5,2
    1e58:	00f68763          	beq	a3,a5,1e66 <USBHSH_CheckRootHubPortStatus+0x30>
    1e5c:	10074783          	lbu	a5,256(a4)
    1e60:	0207f793          	andi	a5,a5,32
    1e64:	c781                	beqz	a5,1e6c <USBHSH_CheckRootHubPortStatus+0x36>
    1e66:	4509                	li	a0,2
    1e68:	8082                	ret
    1e6a:	4501                	li	a0,0
    1e6c:	8082                	ret

00001e6e <USBHSH_CheckRootHubPortSpeed>:
    1e6e:	400097b7          	lui	a5,0x40009
    1e72:	1347d783          	lhu	a5,308(a5) # 40009134 <_eusrstack+0x1ffe9134>
    1e76:	20000713          	li	a4,512
    1e7a:	4501                	li	a0,0
    1e7c:	6007f793          	andi	a5,a5,1536
    1e80:	00e78b63          	beq	a5,a4,1e96 <USBHSH_CheckRootHubPortSpeed+0x28>
    1e84:	4505                	li	a0,1
    1e86:	cb81                	beqz	a5,1e96 <USBHSH_CheckRootHubPortSpeed+0x28>
    1e88:	40000713          	li	a4,1024
    1e8c:	4509                	li	a0,2
    1e8e:	00e78463          	beq	a5,a4,1e96 <USBHSH_CheckRootHubPortSpeed+0x28>
    1e92:	0ff00513          	li	a0,255
    1e96:	8082                	ret

00001e98 <USBHSH_ResetRootHubPort>:
    1e98:	cc3fe2ef          	jal	t0,b5a <__riscv_save_0>
    1e9c:	400097b7          	lui	a5,0x40009
    1ea0:	100781a3          	sb	zero,259(a5) # 40009103 <_eusrstack+0x1ffe9103>
    1ea4:	4705                	li	a4,1
    1ea6:	00a76e63          	bltu	a4,a0,1ec2 <USBHSH_ResetRootHubPort+0x2a>
    1eaa:	12c78793          	addi	a5,a5,300
    1eae:	4398                	lw	a4,0(a5)
    1eb0:	00176713          	ori	a4,a4,1
    1eb4:	c398                	sw	a4,0(a5)
    1eb6:	ed09                	bnez	a0,1ed0 <USBHSH_ResetRootHubPort+0x38>
    1eb8:	452d                	li	a0,11
    1eba:	1ffff097          	auipc	ra,0x1ffff
    1ebe:	82a080e7          	jalr	-2006(ra) # 200006e4 <mDelaymS>
    1ec2:	400097b7          	lui	a5,0x40009
    1ec6:	12c78793          	addi	a5,a5,300 # 4000912c <_eusrstack+0x1ffe912c>
    1eca:	4398                	lw	a4,0(a5)
    1ecc:	9b79                	andi	a4,a4,-2
    1ece:	c398                	sw	a4,0(a5)
    1ed0:	4509                	li	a0,2
    1ed2:	1ffff097          	auipc	ra,0x1ffff
    1ed6:	812080e7          	jalr	-2030(ra) # 200006e4 <mDelaymS>
    1eda:	400097b7          	lui	a5,0x40009
    1ede:	1367c703          	lbu	a4,310(a5) # 40009136 <_eusrstack+0x1ffe9136>
    1ee2:	8b05                	andi	a4,a4,1
    1ee4:	cb01                	beqz	a4,1ef4 <USBHSH_ResetRootHubPort+0x5c>
    1ee6:	1347d703          	lhu	a4,308(a5)
    1eea:	8b05                	andi	a4,a4,1
    1eec:	c701                	beqz	a4,1ef4 <USBHSH_ResetRootHubPort+0x5c>
    1eee:	4705                	li	a4,1
    1ef0:	12e78b23          	sb	a4,310(a5)
    1ef4:	c8bfe06f          	j	b7e <__riscv_restore_0>

00001ef8 <USBHSH_EnableRootHubPort>:
    1ef8:	40009737          	lui	a4,0x40009
    1efc:	13475783          	lhu	a5,308(a4) # 40009134 <_eusrstack+0x1ffe9134>
    1f00:	8b85                	andi	a5,a5,1
    1f02:	c795                	beqz	a5,1f2e <USBHSH_EnableRootHubPort+0x36>
    1f04:	10074783          	lbu	a5,256(a4)
    1f08:	0207f793          	andi	a5,a5,32
    1f0c:	e39d                	bnez	a5,1f32 <USBHSH_EnableRootHubPort+0x3a>
    1f0e:	c4dfe2ef          	jal	t0,b5a <__riscv_save_0>
    1f12:	842a                	mv	s0,a0
    1f14:	3fa9                	jal	1e6e <USBHSH_CheckRootHubPortSpeed>
    1f16:	a008                	sb	a0,0(s0)
    1f18:	40009737          	lui	a4,0x40009
    1f1c:	10074783          	lbu	a5,256(a4) # 40009100 <_eusrstack+0x1ffe9100>
    1f20:	4501                	li	a0,0
    1f22:	0207e793          	ori	a5,a5,32
    1f26:	10f70023          	sb	a5,256(a4)
    1f2a:	c55fe06f          	j	b7e <__riscv_restore_0>
    1f2e:	4559                	li	a0,22
    1f30:	8082                	ret
    1f32:	40009737          	lui	a4,0x40009
    1f36:	10074783          	lbu	a5,256(a4) # 40009100 <_eusrstack+0x1ffe9100>
    1f3a:	4501                	li	a0,0
    1f3c:	0207e793          	ori	a5,a5,32
    1f40:	10f70023          	sb	a5,256(a4)
    1f44:	8082                	ret

00001f46 <USBHSH_Transact>:
    1f46:	be5fe2ef          	jal	t0,b2a <__riscv_save_12>
    1f4a:	00f57493          	andi	s1,a0,15
    1f4e:	47a5                	li	a5,9
    1f50:	1141                	addi	sp,sp,-16
    1f52:	8932                	mv	s2,a2
    1f54:	06f49763          	bne	s1,a5,1fc2 <USBHSH_Transact+0x7c>
    1f58:	1805f593          	andi	a1,a1,384
    1f5c:	00b035b3          	snez	a1,a1
    1f60:	00859a13          	slli	s4,a1,0x8
    1f64:	40009db7          	lui	s11,0x40009
    1f68:	00aa6533          	or	a0,s4,a0
    1f6c:	4981                	li	s3,0
    1f6e:	104d8a93          	addi	s5,s11,260 # 40009104 <_eusrstack+0x1ffe9104>
    1f72:	4c41                	li	s8,16
    1f74:	4b29                	li	s6,10
    1f76:	5bf1                	li	s7,-4
    1f78:	4ca5                	li	s9,9
    1f7a:	4d09                	li	s10,2
    1f7c:	29051413          	bseti	s0,a0,0x10
    1f80:	008aa023          	sw	s0,0(s5)
    1f84:	118d8423          	sb	s8,264(s11)
    1f88:	3e800793          	li	a5,1000
    1f8c:	108dc703          	lbu	a4,264(s11)
    1f90:	8b41                	andi	a4,a4,16
    1f92:	ef01                	bnez	a4,1faa <USBHSH_Transact+0x64>
    1f94:	4505                	li	a0,1
    1f96:	c63e                	sw	a5,12(sp)
    1f98:	1fffe097          	auipc	ra,0x1fffe
    1f9c:	736080e7          	jalr	1846(ra) # 200006ce <mDelayuS>
    1fa0:	47b2                	lw	a5,12(sp)
    1fa2:	17fd                	addi	a5,a5,-1
    1fa4:	0807c7b3          	zext.h	a5,a5
    1fa8:	f3f5                	bnez	a5,1f8c <USBHSH_Transact+0x46>
    1faa:	000aa783          	lw	a5,0(s5)
    1fae:	9bc1                	andi	a5,a5,-16
    1fb0:	00faa023          	sw	a5,0(s5)
    1fb4:	108dc783          	lbu	a5,264(s11)
    1fb8:	8bc1                	andi	a5,a5,16
    1fba:	eb99                	bnez	a5,1fd0 <USBHSH_Transact+0x8a>
    1fbc:	0fe00513          	li	a0,254
    1fc0:	a8bd                	j	203e <USBHSH_Transact+0xf8>
    1fc2:	4785                	li	a5,1
    1fc4:	4a01                	li	s4,0
    1fc6:	f8f49fe3          	bne	s1,a5,1f64 <USBHSH_Transact+0x1e>
    1fca:	1405f593          	andi	a1,a1,320
    1fce:	b779                	j	1f5c <USBHSH_Transact+0x16>
    1fd0:	136dc503          	lbu	a0,310(s11)
    1fd4:	8905                	andi	a0,a0,1
    1fd6:	c50d                	beqz	a0,2000 <USBHSH_Transact+0xba>
    1fd8:	4785                	li	a5,1
    1fda:	12fd8b23          	sb	a5,310(s11)
    1fde:	0c800513          	li	a0,200
    1fe2:	1fffe097          	auipc	ra,0x1fffe
    1fe6:	6ec080e7          	jalr	1772(ra) # 200006ce <mDelayuS>
    1fea:	134dd783          	lhu	a5,308(s11)
    1fee:	8b85                	andi	a5,a5,1
    1ff0:	cfcd                	beqz	a5,20aa <USBHSH_Transact+0x164>
    1ff2:	100dc783          	lbu	a5,256(s11)
    1ff6:	0207f793          	andi	a5,a5,32
    1ffa:	c795                	beqz	a5,2026 <USBHSH_Transact+0xe0>
    1ffc:	4555                	li	a0,21
    1ffe:	a081                	j	203e <USBHSH_Transact+0xf8>
    2000:	108dc783          	lbu	a5,264(s11)
    2004:	8bc1                	andi	a5,a5,16
    2006:	cfd9                	beqz	a5,20a4 <USBHSH_Transact+0x15e>
    2008:	109dc783          	lbu	a5,265(s11)
    200c:	0ff7f713          	zext.b	a4,a5
    2010:	8bbd                	andi	a5,a5,15
    2012:	07949763          	bne	s1,s9,2080 <USBHSH_Transact+0x13a>
    2016:	468d                	li	a3,3
    2018:	02d79663          	bne	a5,a3,2044 <USBHSH_Transact+0xfe>
    201c:	020a0163          	beqz	s4,203e <USBHSH_Transact+0xf8>
    2020:	8b1d                	andi	a4,a4,7
    2022:	04f71c63          	bne	a4,a5,207a <USBHSH_Transact+0x134>
    2026:	0985                	addi	s3,s3,1
    2028:	453d                	li	a0,15
    202a:	0ff9f993          	zext.b	s3,s3
    202e:	1fffe097          	auipc	ra,0x1fffe
    2032:	6a0080e7          	jalr	1696(ra) # 200006ce <mDelayuS>
    2036:	f56995e3          	bne	s3,s6,1f80 <USBHSH_Transact+0x3a>
    203a:	02000513          	li	a0,32
    203e:	0141                	addi	sp,sp,16
    2040:	b27fe06f          	j	b66 <__riscv_restore_12>
    2044:	462d                	li	a2,11
    2046:	02c78563          	beq	a5,a2,2070 <USBHSH_Transact+0x12a>
    204a:	4739                	li	a4,14
    204c:	06e78163          	beq	a5,a4,20ae <USBHSH_Transact+0x168>
    2050:	4729                	li	a4,10
    2052:	04e79763          	bne	a5,a4,20a0 <USBHSH_Transact+0x15a>
    2056:	04090f63          	beqz	s2,20b4 <USBHSH_Transact+0x16e>
    205a:	67c1                	lui	a5,0x10
    205c:	17f9                	addi	a5,a5,-2 # fffe <_data_lma+0xcf9a>
    205e:	0127e363          	bltu	a5,s2,2064 <USBHSH_Transact+0x11e>
    2062:	197d                	addi	s2,s2,-1
    2064:	453d                	li	a0,15
    2066:	1fffe097          	auipc	ra,0x1fffe
    206a:	668080e7          	jalr	1640(ra) # 200006ce <mDelayuS>
    206e:	bf09                	j	1f80 <USBHSH_Transact+0x3a>
    2070:	fc0a17e3          	bnez	s4,203e <USBHSH_Transact+0xf8>
    2074:	8b1d                	andi	a4,a4,7
    2076:	fad708e3          	beq	a4,a3,2026 <USBHSH_Transact+0xe0>
    207a:	0207e513          	ori	a0,a5,32
    207e:	b7c1                	j	203e <USBHSH_Transact+0xf8>
    2080:	8b2d                	andi	a4,a4,11
    2082:	fba70ee3          	beq	a4,s10,203e <USBHSH_Transact+0xf8>
    2086:	4739                	li	a4,14
    2088:	02e78363          	beq	a5,a4,20ae <USBHSH_Transact+0x168>
    208c:	fd6785e3          	beq	a5,s6,2056 <USBHSH_Transact+0x110>
    2090:	4735                	li	a4,13
    2092:	00e48763          	beq	s1,a4,20a0 <USBHSH_Transact+0x15a>
    2096:	f29763e3          	bltu	a4,s1,1fbc <USBHSH_Transact+0x76>
    209a:	4705                	li	a4,1
    209c:	f2e490e3          	bne	s1,a4,1fbc <USBHSH_Transact+0x76>
    20a0:	d3d9                	beqz	a5,2026 <USBHSH_Transact+0xe0>
    20a2:	bfe1                	j	207a <USBHSH_Transact+0x134>
    20a4:	117d8423          	sb	s7,264(s11)
    20a8:	bfbd                	j	2026 <USBHSH_Transact+0xe0>
    20aa:	4559                	li	a0,22
    20ac:	bf49                	j	203e <USBHSH_Transact+0xf8>
    20ae:	02e00513          	li	a0,46
    20b2:	b771                	j	203e <USBHSH_Transact+0xf8>
    20b4:	02a00513          	li	a0,42
    20b8:	b759                	j	203e <USBHSH_Transact+0xf8>

000020ba <USBHSH_CtrlTransfer>:
    20ba:	a79fe2ef          	jal	t0,b32 <__riscv_save_10>
    20be:	8a2a                	mv	s4,a0
    20c0:	84b2                	mv	s1,a2
    20c2:	06400513          	li	a0,100
    20c6:	892e                	mv	s2,a1
    20c8:	1fffe097          	auipc	ra,0x1fffe
    20cc:	606080e7          	jalr	1542(ra) # 200006ce <mDelayuS>
    20d0:	c099                	beqz	s1,20d6 <USBHSH_CtrlTransfer+0x1c>
    20d2:	00049023          	sh	zero,0(s1)
    20d6:	40009437          	lui	s0,0x40009
    20da:	11840793          	addi	a5,s0,280 # 40009118 <_eusrstack+0x1ffe9118>
    20de:	4721                	li	a4,8
    20e0:	6989                	lui	s3,0x2
    20e2:	c398                	sw	a4,0(a5)
    20e4:	71098613          	addi	a2,s3,1808 # 2710 <GetSysClock+0x54>
    20e8:	4581                	li	a1,0
    20ea:	4535                	li	a0,13
    20ec:	3da9                	jal	1f46 <USBHSH_Transact>
    20ee:	14051e63          	bnez	a0,224a <USBHSH_CtrlTransfer+0x190>
    20f2:	10440413          	addi	s0,s0,260
    20f6:	401c                	lw	a5,0(s0)
    20f8:	20002b37          	lui	s6,0x20002
    20fc:	cff7f793          	andi	a5,a5,-769
    2100:	1007e793          	ori	a5,a5,256
    2104:	c01c                	sw	a5,0(s0)
    2106:	ae8b0793          	addi	a5,s6,-1304 # 20001ae8 <TxBuffer>
    210a:	23e2                	lhu	s0,6(a5)
    210c:	ae8b0b13          	addi	s6,s6,-1304
    2110:	0e040e63          	beqz	s0,220c <USBHSH_CtrlTransfer+0x152>
    2114:	0e090c63          	beqz	s2,220c <USBHSH_CtrlTransfer+0x152>
    2118:	00078783          	lb	a5,0(a5)
    211c:	0607cb63          	bltz	a5,2192 <USBHSH_CtrlTransfer+0xd8>
    2120:	40009bb7          	lui	s7,0x40009
    2124:	71098993          	addi	s3,s3,1808
    2128:	06400513          	li	a0,100
    212c:	1fffe097          	auipc	ra,0x1fffe
    2130:	5a2080e7          	jalr	1442(ra) # 200006ce <mDelayuS>
    2134:	118b8713          	addi	a4,s7,280 # 40009118 <_eusrstack+0x1ffe9118>
    2138:	0a8a57b3          	minu	a5,s4,s0
    213c:	8aca                	mv	s5,s2
    213e:	c31c                	sw	a5,0(a4)
    2140:	118ba703          	lw	a4,280(s7)
    2144:	412a87b3          	sub	a5,s5,s2
    2148:	118b8c13          	addi	s8,s7,280
    214c:	0807c7b3          	zext.h	a5,a5
    2150:	10e79d63          	bne	a5,a4,226a <USBHSH_CtrlTransfer+0x1b0>
    2154:	104ba583          	lw	a1,260(s7)
    2158:	864e                	mv	a2,s3
    215a:	4505                	li	a0,1
    215c:	104b8913          	addi	s2,s7,260
    2160:	0805c5b3          	zext.h	a1,a1
    2164:	33cd                	jal	1f46 <USBHSH_Transact>
    2166:	e175                	bnez	a0,224a <USBHSH_CtrlTransfer+0x190>
    2168:	104ba783          	lw	a5,260(s7)
    216c:	1007c793          	xori	a5,a5,256
    2170:	10fba223          	sw	a5,260(s7)
    2174:	118ba783          	lw	a5,280(s7)
    2178:	40f407b3          	sub	a5,s0,a5
    217c:	0807c433          	zext.h	s0,a5
    2180:	c491                	beqz	s1,218c <USBHSH_CtrlTransfer+0xd2>
    2182:	118ba703          	lw	a4,280(s7)
    2186:	209e                	lhu	a5,0(s1)
    2188:	97ba                	add	a5,a5,a4
    218a:	a09e                	sh	a5,0(s1)
    218c:	c041                	beqz	s0,220c <USBHSH_CtrlTransfer+0x152>
    218e:	8956                	mv	s2,s5
    2190:	bf61                	j	2128 <USBHSH_CtrlTransfer+0x6e>
    2192:	20002b37          	lui	s6,0x20002
    2196:	40009ab7          	lui	s5,0x40009
    219a:	71098993          	addi	s3,s3,1808
    219e:	b28b0b13          	addi	s6,s6,-1240 # 20001b28 <RxBuffer>
    21a2:	1a7d                	addi	s4,s4,-1
    21a4:	06400513          	li	a0,100
    21a8:	1fffe097          	auipc	ra,0x1fffe
    21ac:	526080e7          	jalr	1318(ra) # 200006ce <mDelayuS>
    21b0:	104aa583          	lw	a1,260(s5) # 40009104 <_eusrstack+0x1ffe9104>
    21b4:	864e                	mv	a2,s3
    21b6:	4525                	li	a0,9
    21b8:	104a8b93          	addi	s7,s5,260
    21bc:	0805c5b3          	zext.h	a1,a1
    21c0:	3359                	jal	1f46 <USBHSH_Transact>
    21c2:	e541                	bnez	a0,224a <USBHSH_CtrlTransfer+0x190>
    21c4:	104aa783          	lw	a5,260(s5)
    21c8:	11ca8713          	addi	a4,s5,284
    21cc:	1007c793          	xori	a5,a5,256
    21d0:	10faa223          	sw	a5,260(s5)
    21d4:	4314                	lw	a3,0(a4)
    21d6:	87a2                	mv	a5,s0
    21d8:	0086f563          	bgeu	a3,s0,21e2 <USBHSH_CtrlTransfer+0x128>
    21dc:	431c                	lw	a5,0(a4)
    21de:	0807c7b3          	zext.h	a5,a5
    21e2:	8c1d                	sub	s0,s0,a5
    21e4:	08044433          	zext.h	s0,s0
    21e8:	c481                	beqz	s1,21f0 <USBHSH_CtrlTransfer+0x136>
    21ea:	209a                	lhu	a4,0(s1)
    21ec:	973e                	add	a4,a4,a5
    21ee:	a09a                	sh	a4,0(s1)
    21f0:	4701                	li	a4,0
    21f2:	080746b3          	zext.h	a3,a4
    21f6:	04d79c63          	bne	a5,a3,224e <USBHSH_CtrlTransfer+0x194>
    21fa:	993e                	add	s2,s2,a5
    21fc:	11ca8793          	addi	a5,s5,284
    2200:	4398                	lw	a4,0(a5)
    2202:	ef31                	bnez	a4,225e <USBHSH_CtrlTransfer+0x1a4>
    2204:	400097b7          	lui	a5,0x40009
    2208:	1007ac23          	sw	zero,280(a5) # 40009118 <_eusrstack+0x1ffe9118>
    220c:	06400513          	li	a0,100
    2210:	1fffe097          	auipc	ra,0x1fffe
    2214:	4be080e7          	jalr	1214(ra) # 200006ce <mDelayuS>
    2218:	400097b7          	lui	a5,0x40009
    221c:	1187a783          	lw	a5,280(a5) # 40009118 <_eusrstack+0x1ffe9118>
    2220:	4505                	li	a0,1
    2222:	c391                	beqz	a5,2226 <USBHSH_CtrlTransfer+0x16c>
    2224:	4525                	li	a0,9
    2226:	6609                	lui	a2,0x2
    2228:	71060613          	addi	a2,a2,1808 # 2710 <GetSysClock+0x54>
    222c:	10000593          	li	a1,256
    2230:	3b19                	jal	1f46 <USBHSH_Transact>
    2232:	ed01                	bnez	a0,224a <USBHSH_CtrlTransfer+0x190>
    2234:	400097b7          	lui	a5,0x40009
    2238:	11878713          	addi	a4,a5,280 # 40009118 <_eusrstack+0x1ffe9118>
    223c:	4318                	lw	a4,0(a4)
    223e:	c711                	beqz	a4,224a <USBHSH_CtrlTransfer+0x190>
    2240:	11c78793          	addi	a5,a5,284
    2244:	439c                	lw	a5,0(a5)
    2246:	c391                	beqz	a5,224a <USBHSH_CtrlTransfer+0x190>
    2248:	455d                	li	a0,23
    224a:	921fe06f          	j	b6a <__riscv_restore_10>
    224e:	016706b3          	add	a3,a4,s6
    2252:	2290                	lbu	a2,0(a3)
    2254:	00e906b3          	add	a3,s2,a4
    2258:	0705                	addi	a4,a4,1
    225a:	a290                	sb	a2,0(a3)
    225c:	bf59                	j	21f2 <USBHSH_CtrlTransfer+0x138>
    225e:	439c                	lw	a5,0(a5)
    2260:	00fa77b3          	and	a5,s4,a5
    2264:	f3c5                	bnez	a5,2204 <USBHSH_CtrlTransfer+0x14a>
    2266:	fc1d                	bnez	s0,21a4 <USBHSH_CtrlTransfer+0xea>
    2268:	bf71                	j	2204 <USBHSH_CtrlTransfer+0x14a>
    226a:	000ac703          	lbu	a4,0(s5)
    226e:	97da                	add	a5,a5,s6
    2270:	0a85                	addi	s5,s5,1
    2272:	a398                	sb	a4,0(a5)
    2274:	b5f1                	j	2140 <USBHSH_CtrlTransfer+0x86>

00002276 <USBHSH_GetDeviceDescr>:
    2276:	8e5fe2ef          	jal	t0,b5a <__riscv_save_0>
    227a:	47a1                	li	a5,8
    227c:	a11c                	sb	a5,0(a0)
    227e:	01000737          	lui	a4,0x1000
    2282:	200027b7          	lui	a5,0x20002
    2286:	ae878793          	addi	a5,a5,-1304 # 20001ae8 <TxBuffer>
    228a:	68070713          	addi	a4,a4,1664 # 1000680 <_data_lma+0xffd61c>
    228e:	c398                	sw	a4,0(a5)
    2290:	00120737          	lui	a4,0x120
    2294:	c3d8                	sw	a4,4(a5)
    2296:	842a                	mv	s0,a0
    2298:	2108                	lbu	a0,0(a0)
    229a:	1141                	addi	sp,sp,-16
    229c:	00e10613          	addi	a2,sp,14
    22a0:	84ae                	mv	s1,a1
    22a2:	3d21                	jal	20ba <USBHSH_CtrlTransfer>
    22a4:	e901                	bnez	a0,22b4 <USBHSH_GetDeviceDescr+0x3e>
    22a6:	30fc                	lbu	a5,7(s1)
    22a8:	8738                	lhu	a4,14(sp)
    22aa:	a01c                	sb	a5,0(s0)
    22ac:	47c5                	li	a5,17
    22ae:	00e7e363          	bltu	a5,a4,22b4 <USBHSH_GetDeviceDescr+0x3e>
    22b2:	455d                	li	a0,23
    22b4:	0141                	addi	sp,sp,16
    22b6:	8c9fe06f          	j	b7e <__riscv_restore_0>

000022ba <USBHSH_GetConfigDescr>:
    22ba:	887fe2ef          	jal	t0,b40 <__riscv_save_4>
    22be:	20002437          	lui	s0,0x20002
    22c2:	020009b7          	lui	s3,0x2000
    22c6:	1141                	addi	sp,sp,-16
    22c8:	ae840413          	addi	s0,s0,-1304 # 20001ae8 <TxBuffer>
    22cc:	8a32                	mv	s4,a2
    22ce:	68098993          	addi	s3,s3,1664 # 2000680 <_data_lma+0x1ffd61c>
    22d2:	00040ab7          	lui	s5,0x40
    22d6:	8636                	mv	a2,a3
    22d8:	892a                	mv	s2,a0
    22da:	84ae                	mv	s1,a1
    22dc:	01342023          	sw	s3,0(s0)
    22e0:	01542223          	sw	s5,4(s0)
    22e4:	c636                	sw	a3,12(sp)
    22e6:	3bd1                	jal	20ba <USBHSH_CtrlTransfer>
    22e8:	e51d                	bnez	a0,2316 <USBHSH_GetConfigDescr+0x5c>
    22ea:	4632                	lw	a2,12(sp)
    22ec:	478d                	li	a5,3
    22ee:	455d                	li	a0,23
    22f0:	221a                	lhu	a4,0(a2)
    22f2:	02e7f263          	bgeu	a5,a4,2316 <USBHSH_GetConfigDescr+0x5c>
    22f6:	30bc                	lbu	a5,3(s1)
    22f8:	20b8                	lbu	a4,2(s1)
    22fa:	85a6                	mv	a1,s1
    22fc:	07a2                	slli	a5,a5,0x8
    22fe:	8fd9                	or	a5,a5,a4
    2300:	0b47d7b3          	minu	a5,a5,s4
    2304:	a21e                	sh	a5,0(a2)
    2306:	01542223          	sw	s5,4(s0)
    230a:	01342023          	sw	s3,0(s0)
    230e:	221e                	lhu	a5,0(a2)
    2310:	854a                	mv	a0,s2
    2312:	a07e                	sh	a5,6(s0)
    2314:	335d                	jal	20ba <USBHSH_CtrlTransfer>
    2316:	0141                	addi	sp,sp,16
    2318:	85dfe06f          	j	b74 <__riscv_restore_4>

0000231c <USBHSH_GetStrDescr>:
    231c:	825fe2ef          	jal	t0,b40 <__riscv_save_4>
    2320:	20002437          	lui	s0,0x20002
    2324:	03000a37          	lui	s4,0x3000
    2328:	ae840413          	addi	s0,s0,-1304 # 20001ae8 <TxBuffer>
    232c:	1141                	addi	sp,sp,-16
    232e:	84b2                	mv	s1,a2
    2330:	680a0a13          	addi	s4,s4,1664 # 3000680 <_data_lma+0x2ffd61c>
    2334:	000409b7          	lui	s3,0x40
    2338:	3005e913          	ori	s2,a1,768
    233c:	01442023          	sw	s4,0(s0)
    2340:	40998993          	addi	s3,s3,1033 # 40409 <_data_lma+0x3d3a5>
    2344:	00e10613          	addi	a2,sp,14
    2348:	85a6                	mv	a1,s1
    234a:	8aaa                	mv	s5,a0
    234c:	01342223          	sw	s3,4(s0)
    2350:	01241123          	sh	s2,2(s0)
    2354:	339d                	jal	20ba <USBHSH_CtrlTransfer>
    2356:	ed19                	bnez	a0,2374 <USBHSH_GetStrDescr+0x58>
    2358:	209c                	lbu	a5,0(s1)
    235a:	00e10613          	addi	a2,sp,14
    235e:	01442023          	sw	s4,0(s0)
    2362:	01342223          	sw	s3,4(s0)
    2366:	85a6                	mv	a1,s1
    2368:	8556                	mv	a0,s5
    236a:	877c                	sh	a5,14(sp)
    236c:	01241123          	sh	s2,2(s0)
    2370:	a07e                	sh	a5,6(s0)
    2372:	33a1                	jal	20ba <USBHSH_CtrlTransfer>
    2374:	0141                	addi	sp,sp,16
    2376:	ffefe06f          	j	b74 <__riscv_restore_4>

0000237a <USBHSH_SetUsbAddress>:
    237a:	fe0fe2ef          	jal	t0,b5a <__riscv_save_0>
    237e:	200027b7          	lui	a5,0x20002
    2382:	ae878793          	addi	a5,a5,-1304 # 20001ae8 <TxBuffer>
    2386:	50000713          	li	a4,1280
    238a:	c398                	sw	a4,0(a5)
    238c:	a3ae                	sh	a1,2(a5)
    238e:	842e                	mv	s0,a1
    2390:	4601                	li	a2,0
    2392:	4581                	li	a1,0
    2394:	0007a223          	sw	zero,4(a5)
    2398:	330d                	jal	20ba <USBHSH_CtrlTransfer>
    239a:	84aa                	mv	s1,a0
    239c:	ed01                	bnez	a0,23b4 <USBHSH_SetUsbAddress+0x3a>
    239e:	07f47413          	andi	s0,s0,127
    23a2:	400097b7          	lui	a5,0x40009
    23a6:	108781a3          	sb	s0,259(a5) # 40009103 <_eusrstack+0x1ffe9103>
    23aa:	4515                	li	a0,5
    23ac:	1fffe097          	auipc	ra,0x1fffe
    23b0:	338080e7          	jalr	824(ra) # 200006e4 <mDelaymS>
    23b4:	8526                	mv	a0,s1
    23b6:	fc8fe06f          	j	b7e <__riscv_restore_0>

000023ba <USBHSH_SetUsbConfig>:
    23ba:	200027b7          	lui	a5,0x20002
    23be:	6705                	lui	a4,0x1
    23c0:	ae878793          	addi	a5,a5,-1304 # 20001ae8 <TxBuffer>
    23c4:	90070713          	addi	a4,a4,-1792 # 900 <_highcode_lma+0x6f8>
    23c8:	c398                	sw	a4,0(a5)
    23ca:	a3ae                	sh	a1,2(a5)
    23cc:	4601                	li	a2,0
    23ce:	4581                	li	a1,0
    23d0:	0007a223          	sw	zero,4(a5)
    23d4:	b1dd                	j	20ba <USBHSH_CtrlTransfer>

000023d6 <USBHSH_ClearEndpStall>:
    23d6:	200027b7          	lui	a5,0x20002
    23da:	ae878793          	addi	a5,a5,-1304 # 20001ae8 <TxBuffer>
    23de:	0007a223          	sw	zero,4(a5)
    23e2:	10200713          	li	a4,258
    23e6:	a3ce                	sh	a1,4(a5)
    23e8:	4601                	li	a2,0
    23ea:	4581                	li	a1,0
    23ec:	c398                	sw	a4,0(a5)
    23ee:	b1f1                	j	20ba <USBHSH_CtrlTransfer>

000023f0 <USBHSH_GetEndpData>:
    23f0:	f50fe2ef          	jal	t0,b40 <__riscv_save_4>
    23f4:	842e                	mv	s0,a1
    23f6:	0512                	slli	a0,a0,0x4
    23f8:	218e                	lhu	a1,0(a1)
    23fa:	00956513          	ori	a0,a0,9
    23fe:	8932                	mv	s2,a2
    2400:	0f957513          	andi	a0,a0,249
    2404:	4601                	li	a2,0
    2406:	89b6                	mv	s3,a3
    2408:	b3fff0ef          	jal	ra,1f46 <USBHSH_Transact>
    240c:	84aa                	mv	s1,a0
    240e:	e505                	bnez	a0,2436 <USBHSH_GetEndpData+0x46>
    2410:	400097b7          	lui	a5,0x40009
    2414:	11c7a603          	lw	a2,284(a5) # 4000911c <_eusrstack+0x1ffe911c>
    2418:	200025b7          	lui	a1,0x20002
    241c:	b2858593          	addi	a1,a1,-1240 # 20001b28 <RxBuffer>
    2420:	00c99023          	sh	a2,0(s3)
    2424:	854a                	mv	a0,s2
    2426:	08064633          	zext.h	a2,a2
    242a:	f60fe0ef          	jal	ra,b8a <memcpy>
    242e:	201e                	lhu	a5,0(s0)
    2430:	1007c793          	xori	a5,a5,256
    2434:	a01e                	sh	a5,0(s0)
    2436:	8526                	mv	a0,s1
    2438:	f3cfe06f          	j	b74 <__riscv_restore_4>

0000243c <USBHSH_SendEndpData>:
    243c:	f1efe2ef          	jal	t0,b5a <__riscv_save_0>
    2440:	842a                	mv	s0,a0
    2442:	20002537          	lui	a0,0x20002
    2446:	84ae                	mv	s1,a1
    2448:	ae850513          	addi	a0,a0,-1304 # 20001ae8 <TxBuffer>
    244c:	85b2                	mv	a1,a2
    244e:	8636                	mv	a2,a3
    2450:	8936                	mv	s2,a3
    2452:	f38fe0ef          	jal	ra,b8a <memcpy>
    2456:	00441513          	slli	a0,s0,0x4
    245a:	208e                	lhu	a1,0(s1)
    245c:	400097b7          	lui	a5,0x40009
    2460:	00156513          	ori	a0,a0,1
    2464:	1127ac23          	sw	s2,280(a5) # 40009118 <_eusrstack+0x1ffe9118>
    2468:	4601                	li	a2,0
    246a:	0f157513          	andi	a0,a0,241
    246e:	ad9ff0ef          	jal	ra,1f46 <USBHSH_Transact>
    2472:	e509                	bnez	a0,247c <USBHSH_SendEndpData+0x40>
    2474:	209e                	lhu	a5,0(s1)
    2476:	1007c793          	xori	a5,a5,256
    247a:	a09e                	sh	a5,0(s1)
    247c:	f02fe06f          	j	b7e <__riscv_restore_0>

00002480 <DebugInit>:
    2480:	edafe2ef          	jal	t0,b5a <__riscv_save_0>
    2484:	400017b7          	lui	a5,0x40001
    2488:	6711                	lui	a4,0x4
    248a:	0ae7ac23          	sw	a4,184(a5) # 400010b8 <_eusrstack+0x1ffe10b8>
    248e:	45c1                	li	a1,16
    2490:	4505                	li	a0,1
    2492:	2439                	jal	26a0 <GPIOPinRemap>
    2494:	4585                	li	a1,1
    2496:	6521                	lui	a0,0x8
    2498:	2269                	jal	2622 <GPIOA_ModeCfg>
    249a:	458d                	li	a1,3
    249c:	6511                	lui	a0,0x4
    249e:	2251                	jal	2622 <GPIOA_ModeCfg>
    24a0:	2ccd                	jal	2792 <UART0_DefInit>
    24a2:	edcfe06f          	j	b7e <__riscv_restore_0>

000024a6 <main>:
    24a6:	eb4fe2ef          	jal	t0,b5a <__riscv_save_0>
    24aa:	34500513          	li	a0,837
    24ae:	1fffe097          	auipc	ra,0x1fffe
    24b2:	ef8080e7          	jalr	-264(ra) # 200003a6 <SetSysClock>
    24b6:	37e9                	jal	2480 <DebugInit>
    24b8:	6509                	lui	a0,0x2
    24ba:	86050513          	addi	a0,a0,-1952 # 1860 <KB_SetReport+0x54>
    24be:	2c51                	jal	2752 <TMR3_TimerInit>
    24c0:	40003737          	lui	a4,0x40003
    24c4:	c0274783          	lbu	a5,-1022(a4) # 40002c02 <_eusrstack+0x1ffe2c02>
    24c8:	650d                	lui	a0,0x3
    24ca:	fdc50513          	addi	a0,a0,-36 # 2fdc <strlen+0x22c>
    24ce:	0017e793          	ori	a5,a5,1
    24d2:	c0f70123          	sb	a5,-1022(a4)
    24d6:	e000e7b7          	lui	a5,0xe000e
    24da:	4705                	li	a4,1
    24dc:	10e7a223          	sw	a4,260(a5) # e000e104 <_eusrstack+0xbffee104>
    24e0:	071000ef          	jal	ra,2d50 <puts>
    24e4:	4505                	li	a0,1
    24e6:	8d3ff0ef          	jal	ra,1db8 <USBHS_Host_Init>
    24ea:	467d                	li	a2,31
    24ec:	4581                	li	a1,0
    24ee:	3cb18513          	addi	a0,gp,971 # 200016b3 <RootHubDev+0x1f>
    24f2:	eaefe0ef          	jal	ra,ba0 <memset>
    24f6:	5d200613          	li	a2,1490
    24fa:	4581                	li	a1,0
    24fc:	dda18513          	addi	a0,gp,-550 # 200010c2 <HostCtl+0x5d2>
    2500:	ea0fe0ef          	jal	ra,ba0 <memset>
    2504:	da4ff0ef          	jal	ra,1aa8 <USBH_MainDeal>
    2508:	bff5                	j	2504 <main+0x5e>

0000250a <HID_GetHidDesr>:
    250a:	4785                	li	a5,1
    250c:	02f51763          	bne	a0,a5,253a <HID_GetHidDesr+0x30>
    2510:	200027b7          	lui	a5,0x20002
    2514:	ae878793          	addi	a5,a5,-1304 # 20001ae8 <TxBuffer>
    2518:	8832                	mv	a6,a2
    251a:	863a                	mv	a2,a4
    251c:	22000737          	lui	a4,0x22000
    2520:	0007a223          	sw	zero,4(a5)
    2524:	68170713          	addi	a4,a4,1665 # 22000681 <_eusrstack+0x1fe0681>
    2528:	c398                	sw	a4,0(a5)
    252a:	01079223          	sh	a6,4(a5)
    252e:	221a                	lhu	a4,0(a2)
    2530:	852e                	mv	a0,a1
    2532:	85b6                	mv	a1,a3
    2534:	a3fa                	sh	a4,6(a5)
    2536:	b85ff06f          	j	20ba <USBHSH_CtrlTransfer>
    253a:	0fb00513          	li	a0,251
    253e:	8082                	ret

00002540 <HID_SetReport>:
    2540:	4785                	li	a5,1
    2542:	02f51563          	bne	a0,a5,256c <HID_SetReport+0x2c>
    2546:	8832                	mv	a6,a2
    2548:	200027b7          	lui	a5,0x20002
    254c:	863a                	mv	a2,a4
    254e:	02001737          	lui	a4,0x2001
    2552:	ae878793          	addi	a5,a5,-1304 # 20001ae8 <TxBuffer>
    2556:	92170713          	addi	a4,a4,-1759 # 2000921 <_data_lma+0x1ffd8bd>
    255a:	c398                	sw	a4,0(a5)
    255c:	6741                	lui	a4,0x10
    255e:	c3d8                	sw	a4,4(a5)
    2560:	852e                	mv	a0,a1
    2562:	01079223          	sh	a6,4(a5)
    2566:	85b6                	mv	a1,a3
    2568:	b53ff06f          	j	20ba <USBHSH_CtrlTransfer>
    256c:	0fb00513          	li	a0,251
    2570:	8082                	ret

00002572 <HID_SetIdle>:
    2572:	4785                	li	a5,1
    2574:	02f51563          	bne	a0,a5,259e <HID_SetIdle+0x2c>
    2578:	852e                	mv	a0,a1
    257a:	200027b7          	lui	a5,0x20002
    257e:	6585                	lui	a1,0x1
    2580:	ae878793          	addi	a5,a5,-1304 # 20001ae8 <TxBuffer>
    2584:	06a2                	slli	a3,a3,0x8
    2586:	a2158593          	addi	a1,a1,-1503 # a21 <_highcode_lma+0x819>
    258a:	c38c                	sw	a1,0(a5)
    258c:	0007a223          	sw	zero,4(a5)
    2590:	8f55                	or	a4,a4,a3
    2592:	a3d2                	sh	a2,4(a5)
    2594:	a3ba                	sh	a4,2(a5)
    2596:	4601                	li	a2,0
    2598:	4581                	li	a1,0
    259a:	b21ff06f          	j	20ba <USBHSH_CtrlTransfer>
    259e:	0fb00513          	li	a0,251
    25a2:	8082                	ret

000025a4 <HUB_SetPortFeature>:
    25a4:	4785                	li	a5,1
    25a6:	02f51263          	bne	a0,a5,25ca <HUB_SetPortFeature+0x26>
    25aa:	200027b7          	lui	a5,0x20002
    25ae:	ae878793          	addi	a5,a5,-1304 # 20001ae8 <TxBuffer>
    25b2:	32300713          	li	a4,803
    25b6:	c398                	sw	a4,0(a5)
    25b8:	0007a223          	sw	zero,4(a5)
    25bc:	a3d2                	sh	a2,4(a5)
    25be:	852e                	mv	a0,a1
    25c0:	a3b6                	sh	a3,2(a5)
    25c2:	4601                	li	a2,0
    25c4:	4581                	li	a1,0
    25c6:	af5ff06f          	j	20ba <USBHSH_CtrlTransfer>
    25ca:	0fb00513          	li	a0,251
    25ce:	8082                	ret

000025d0 <HUB_GetClassDevDescr>:
    25d0:	4785                	li	a5,1
    25d2:	04f51563          	bne	a0,a5,261c <HUB_GetClassDevDescr+0x4c>
    25d6:	d84fe2ef          	jal	t0,b5a <__riscv_save_0>
    25da:	20002437          	lui	s0,0x20002
    25de:	290007b7          	lui	a5,0x29000
    25e2:	84ae                	mv	s1,a1
    25e4:	ae840413          	addi	s0,s0,-1304 # 20001ae8 <TxBuffer>
    25e8:	6a078793          	addi	a5,a5,1696 # 290006a0 <_eusrstack+0x8fe06a0>
    25ec:	1141                	addi	sp,sp,-16
    25ee:	85b2                	mv	a1,a2
    25f0:	c01c                	sw	a5,0(s0)
    25f2:	8636                	mv	a2,a3
    25f4:	000207b7          	lui	a5,0x20
    25f8:	8526                	mv	a0,s1
    25fa:	c05c                	sw	a5,4(s0)
    25fc:	c636                	sw	a3,12(sp)
    25fe:	c42e                	sw	a1,8(sp)
    2600:	abbff0ef          	jal	ra,20ba <USBHSH_CtrlTransfer>
    2604:	e909                	bnez	a0,2616 <HUB_GetClassDevDescr+0x46>
    2606:	45a2                	lw	a1,8(sp)
    2608:	4632                	lw	a2,12(sp)
    260a:	8526                	mv	a0,s1
    260c:	219c                	lbu	a5,0(a1)
    260e:	a21e                	sh	a5,0(a2)
    2610:	a07e                	sh	a5,6(s0)
    2612:	aa9ff0ef          	jal	ra,20ba <USBHSH_CtrlTransfer>
    2616:	0141                	addi	sp,sp,16
    2618:	d66fe06f          	j	b7e <__riscv_restore_0>
    261c:	0fb00513          	li	a0,251
    2620:	8082                	ret

00002622 <GPIOA_ModeCfg>:
    2622:	4791                	li	a5,4
    2624:	04b7ea63          	bltu	a5,a1,2678 <GPIOA_ModeCfg+0x56>
    2628:	678d                	lui	a5,0x3
    262a:	ff078793          	addi	a5,a5,-16 # 2ff0 <strlen+0x240>
    262e:	20f5c5b3          	sh2add	a1,a1,a5
    2632:	4198                	lw	a4,0(a1)
    2634:	400017b7          	lui	a5,0x40001
    2638:	0b478793          	addi	a5,a5,180 # 400010b4 <_eusrstack+0x1ffe10b4>
    263c:	8702                	jr	a4
    263e:	4394                	lw	a3,0(a5)
    2640:	40001737          	lui	a4,0x40001
    2644:	40a6f6b3          	andn	a3,a3,a0
    2648:	c394                	sw	a3,0(a5)
    264a:	0b070693          	addi	a3,a4,176 # 400010b0 <_eusrstack+0x1ffe10b0>
    264e:	429c                	lw	a5,0(a3)
    2650:	40a7f7b3          	andn	a5,a5,a0
    2654:	a819                	j	266a <GPIOA_ModeCfg+0x48>
    2656:	4394                	lw	a3,0(a5)
    2658:	40001737          	lui	a4,0x40001
    265c:	40a6f6b3          	andn	a3,a3,a0
    2660:	c394                	sw	a3,0(a5)
    2662:	0b070693          	addi	a3,a4,176 # 400010b0 <_eusrstack+0x1ffe10b0>
    2666:	429c                	lw	a5,0(a3)
    2668:	8fc9                	or	a5,a5,a0
    266a:	c29c                	sw	a5,0(a3)
    266c:	0a070793          	addi	a5,a4,160
    2670:	4398                	lw	a4,0(a5)
    2672:	40a77733          	andn	a4,a4,a0
    2676:	c398                	sw	a4,0(a5)
    2678:	8082                	ret
    267a:	4394                	lw	a3,0(a5)
    267c:	40001737          	lui	a4,0x40001
    2680:	8ec9                	or	a3,a3,a0
    2682:	b7d9                	j	2648 <GPIOA_ModeCfg+0x26>
    2684:	4398                	lw	a4,0(a5)
    2686:	40a77733          	andn	a4,a4,a0
    268a:	c398                	sw	a4,0(a5)
    268c:	400017b7          	lui	a5,0x40001
    2690:	0a078793          	addi	a5,a5,160 # 400010a0 <_eusrstack+0x1ffe10a0>
    2694:	4398                	lw	a4,0(a5)
    2696:	8f49                	or	a4,a4,a0
    2698:	bff9                	j	2676 <GPIOA_ModeCfg+0x54>
    269a:	4398                	lw	a4,0(a5)
    269c:	8f49                	or	a4,a4,a0
    269e:	b7f5                	j	268a <GPIOA_ModeCfg+0x68>

000026a0 <GPIOPinRemap>:
    26a0:	c519                	beqz	a0,26ae <GPIOPinRemap+0xe>
    26a2:	40001737          	lui	a4,0x40001
    26a6:	2f1e                	lhu	a5,24(a4)
    26a8:	8fcd                	or	a5,a5,a1
    26aa:	af1e                	sh	a5,24(a4)
    26ac:	8082                	ret
    26ae:	400017b7          	lui	a5,0x40001
    26b2:	2f9a                	lhu	a4,24(a5)
    26b4:	40b775b3          	andn	a1,a4,a1
    26b8:	af8e                	sh	a1,24(a5)
    26ba:	8082                	ret

000026bc <GetSysClock>:
    26bc:	400017b7          	lui	a5,0x40001
    26c0:	279a                	lhu	a4,8(a5)
    26c2:	0c000693          	li	a3,192
    26c6:	0c077713          	andi	a4,a4,192
    26ca:	04d70a63          	beq	a4,a3,271e <GetSysClock+0x62>
    26ce:	279a                	lhu	a4,8(a5)
    26d0:	10077713          	andi	a4,a4,256
    26d4:	c70d                	beqz	a4,26fe <GetSysClock+0x42>
    26d6:	279a                	lhu	a4,8(a5)
    26d8:	279e                	lhu	a5,8(a5)
    26da:	8b7d                	andi	a4,a4,31
    26dc:	eb09                	bnez	a4,26ee <GetSysClock+0x32>
    26de:	2007f793          	andi	a5,a5,512
    26e2:	c3b1                	beqz	a5,2726 <GetSysClock+0x6a>
    26e4:	01e85537          	lui	a0,0x1e85
    26e8:	80050513          	addi	a0,a0,-2048 # 1e84800 <_data_lma+0x1e8179c>
    26ec:	8082                	ret
    26ee:	1298c537          	lui	a0,0x1298c
    26f2:	8bfd                	andi	a5,a5,31
    26f4:	e0050513          	addi	a0,a0,-512 # 1298be00 <_data_lma+0x12988d9c>
    26f8:	02f54533          	div	a0,a0,a5
    26fc:	8082                	ret
    26fe:	279a                	lhu	a4,8(a5)
    2700:	279e                	lhu	a5,8(a5)
    2702:	20077713          	andi	a4,a4,512
    2706:	8bfd                	andi	a5,a5,31
    2708:	c711                	beqz	a4,2714 <GetSysClock+0x58>
    270a:	01e85537          	lui	a0,0x1e85
    270e:	80050513          	addi	a0,a0,-2048 # 1e84800 <_data_lma+0x1e8179c>
    2712:	b7dd                	j	26f8 <GetSysClock+0x3c>
    2714:	00f42537          	lui	a0,0xf42
    2718:	40050513          	addi	a0,a0,1024 # f42400 <_data_lma+0xf3f39c>
    271c:	bff1                	j	26f8 <GetSysClock+0x3c>
    271e:	6521                	lui	a0,0x8
    2720:	d0050513          	addi	a0,a0,-768 # 7d00 <_data_lma+0x4c9c>
    2724:	8082                	ret
    2726:	00f42537          	lui	a0,0xf42
    272a:	40050513          	addi	a0,a0,1024 # f42400 <_data_lma+0xf3f39c>
    272e:	8082                	ret

00002730 <_write>:
    2730:	8532                	mv	a0,a2
    2732:	4781                	li	a5,0
    2734:	40003737          	lui	a4,0x40003
    2738:	46a1                	li	a3,8
    273a:	00a7c363          	blt	a5,a0,2740 <_write+0x10>
    273e:	8082                	ret
    2740:	3730                	lbu	a2,11(a4)
    2742:	fed60fe3          	beq	a2,a3,2740 <_write+0x10>
    2746:	00f58633          	add	a2,a1,a5
    274a:	2210                	lbu	a2,0(a2)
    274c:	0785                	addi	a5,a5,1 # 40001001 <_eusrstack+0x1ffe1001>
    274e:	a710                	sb	a2,8(a4)
    2750:	b7ed                	j	273a <_write+0xa>

00002752 <TMR3_TimerInit>:
    2752:	400037b7          	lui	a5,0x40003
    2756:	c0c78713          	addi	a4,a5,-1012 # 40002c0c <_eusrstack+0x1ffe2c0c>
    275a:	c308                	sw	a0,0(a4)
    275c:	4709                	li	a4,2
    275e:	c0e78023          	sb	a4,-1024(a5)
    2762:	4711                	li	a4,4
    2764:	c0e78023          	sb	a4,-1024(a5)
    2768:	8082                	ret

0000276a <UART0_BaudRateCfg>:
    276a:	bf0fe2ef          	jal	t0,b5a <__riscv_save_0>
    276e:	842a                	mv	s0,a0
    2770:	37b1                	jal	26bc <GetSysClock>
    2772:	4729                	li	a4,10
    2774:	02e507b3          	mul	a5,a0,a4
    2778:	838d                	srli	a5,a5,0x3
    277a:	0287d7b3          	divu	a5,a5,s0
    277e:	0795                	addi	a5,a5,5
    2780:	02e7d7b3          	divu	a5,a5,a4
    2784:	40003737          	lui	a4,0x40003
    2788:	0807c7b3          	zext.h	a5,a5
    278c:	a75e                	sh	a5,12(a4)
    278e:	bf0fe06f          	j	b7e <__riscv_restore_0>

00002792 <UART0_DefInit>:
    2792:	bc8fe2ef          	jal	t0,b5a <__riscv_save_0>
    2796:	6571                	lui	a0,0x1c
    2798:	20050513          	addi	a0,a0,512 # 1c200 <_data_lma+0x1919c>
    279c:	37f9                	jal	276a <UART0_BaudRateCfg>
    279e:	400037b7          	lui	a5,0x40003
    27a2:	f8700713          	li	a4,-121
    27a6:	a3b8                	sb	a4,2(a5)
    27a8:	470d                	li	a4,3
    27aa:	b3b8                	sb	a4,3(a5)
    27ac:	04000713          	li	a4,64
    27b0:	b398                	sb	a4,1(a5)
    27b2:	4705                	li	a4,1
    27b4:	a7f8                	sb	a4,14(a5)
    27b6:	bc8fe06f          	j	b7e <__riscv_restore_0>

000027ba <printchar>:
    27ba:	1101                	addi	sp,sp,-32
    27bc:	ce06                	sw	ra,28(sp)
    27be:	c62e                	sw	a1,12(sp)
    27c0:	cd0d                	beqz	a0,27fa <printchar+0x40>
    27c2:	4118                	lw	a4,0(a0)
    27c4:	87aa                	mv	a5,a0
    27c6:	c305                	beqz	a4,27e6 <printchar+0x2c>
    27c8:	4158                	lw	a4,4(a0)
    27ca:	557d                	li	a0,-1
    27cc:	cb11                	beqz	a4,27e0 <printchar+0x26>
    27ce:	4685                	li	a3,1
    27d0:	00d71b63          	bne	a4,a3,27e6 <printchar+0x2c>
    27d4:	4798                	lw	a4,8(a5)
    27d6:	00070023          	sb	zero,0(a4) # 40003000 <_eusrstack+0x1ffe3000>
    27da:	0007a223          	sw	zero,4(a5) # 40003004 <_eusrstack+0x1ffe3004>
    27de:	4505                	li	a0,1
    27e0:	40f2                	lw	ra,28(sp)
    27e2:	6105                	addi	sp,sp,32
    27e4:	8082                	ret
    27e6:	4798                	lw	a4,8(a5)
    27e8:	46b2                	lw	a3,12(sp)
    27ea:	a314                	sb	a3,0(a4)
    27ec:	4798                	lw	a4,8(a5)
    27ee:	0705                	addi	a4,a4,1
    27f0:	c798                	sw	a4,8(a5)
    27f2:	43d8                	lw	a4,4(a5)
    27f4:	177d                	addi	a4,a4,-1
    27f6:	c3d8                	sw	a4,4(a5)
    27f8:	b7dd                	j	27de <printchar+0x24>
    27fa:	4605                	li	a2,1
    27fc:	006c                	addi	a1,sp,12
    27fe:	3f0d                	jal	2730 <_write>
    2800:	bff9                	j	27de <printchar+0x24>

00002802 <prints>:
    2802:	1101                	addi	sp,sp,-32
    2804:	cc22                	sw	s0,24(sp)
    2806:	ca26                	sw	s1,20(sp)
    2808:	c452                	sw	s4,8(sp)
    280a:	c256                	sw	s5,4(sp)
    280c:	c05a                	sw	s6,0(sp)
    280e:	ce06                	sw	ra,28(sp)
    2810:	c84a                	sw	s2,16(sp)
    2812:	c64e                	sw	s3,12(sp)
    2814:	8a2a                	mv	s4,a0
    2816:	8aae                	mv	s5,a1
    2818:	8432                	mv	s0,a2
    281a:	84ba                	mv	s1,a4
    281c:	0016fb13          	andi	s6,a3,1
    2820:	08064a63          	bltz	a2,28b4 <prints+0xb2>
    2824:	852e                	mv	a0,a1
    2826:	8936                	mv	s2,a3
    2828:	2361                	jal	2db0 <strlen>
    282a:	89aa                	mv	s3,a0
    282c:	08855263          	bge	a0,s0,28b0 <prints+0xae>
    2830:	02955d63          	bge	a0,s1,286a <prints+0x68>
    2834:	8c05                	sub	s0,s0,s1
    2836:	080b1963          	bnez	s6,28c8 <prints+0xc6>
    283a:	02000b13          	li	s6,32
    283e:	8922                	mv	s2,s0
    2840:	07204f63          	bgtz	s2,28be <prints+0xbc>
    2844:	4901                	li	s2,0
    2846:	0b246933          	max	s2,s0,s2
    284a:	41240433          	sub	s0,s0,s2
    284e:	0299d963          	bge	s3,s1,2880 <prints+0x7e>
    2852:	413484b3          	sub	s1,s1,s3
    2856:	89a6                	mv	s3,s1
    2858:	03000593          	li	a1,48
    285c:	8552                	mv	a0,s4
    285e:	19fd                	addi	s3,s3,-1
    2860:	3fa9                	jal	27ba <printchar>
    2862:	fe099be3          	bnez	s3,2858 <prints+0x56>
    2866:	9926                	add	s2,s2,s1
    2868:	a821                	j	2880 <prints+0x7e>
    286a:	8c09                	sub	s0,s0,a0
    286c:	00297913          	andi	s2,s2,2
    2870:	fc0903e3          	beqz	s2,2836 <prints+0x34>
    2874:	f0e9                	bnez	s1,2836 <prints+0x34>
    2876:	040b0163          	beqz	s6,28b8 <prints+0xb6>
    287a:	4901                	li	s2,0
    287c:	03000b13          	li	s6,48
    2880:	84ca                	mv	s1,s2
    2882:	412487b3          	sub	a5,s1,s2
    2886:	97d6                	add	a5,a5,s5
    2888:	00078583          	lb	a1,0(a5)
    288c:	e1b1                	bnez	a1,28d0 <prints+0xce>
    288e:	8922                	mv	s2,s0
    2890:	05204463          	bgtz	s2,28d8 <prints+0xd6>
    2894:	4781                	li	a5,0
    2896:	40f2                	lw	ra,28(sp)
    2898:	0af46533          	max	a0,s0,a5
    289c:	4462                	lw	s0,24(sp)
    289e:	4942                	lw	s2,16(sp)
    28a0:	49b2                	lw	s3,12(sp)
    28a2:	4a22                	lw	s4,8(sp)
    28a4:	4a92                	lw	s5,4(sp)
    28a6:	4b02                	lw	s6,0(sp)
    28a8:	9526                	add	a0,a0,s1
    28aa:	44d2                	lw	s1,20(sp)
    28ac:	6105                	addi	sp,sp,32
    28ae:	8082                	ret
    28b0:	4401                	li	s0,0
    28b2:	bf6d                	j	286c <prints+0x6a>
    28b4:	4981                	li	s3,0
    28b6:	b741                	j	2836 <prints+0x34>
    28b8:	03000b13          	li	s6,48
    28bc:	b749                	j	283e <prints+0x3c>
    28be:	85da                	mv	a1,s6
    28c0:	8552                	mv	a0,s4
    28c2:	3de5                	jal	27ba <printchar>
    28c4:	197d                	addi	s2,s2,-1
    28c6:	bfad                	j	2840 <prints+0x3e>
    28c8:	02000b13          	li	s6,32
    28cc:	4901                	li	s2,0
    28ce:	b741                	j	284e <prints+0x4c>
    28d0:	8552                	mv	a0,s4
    28d2:	35e5                	jal	27ba <printchar>
    28d4:	0485                	addi	s1,s1,1
    28d6:	b775                	j	2882 <prints+0x80>
    28d8:	85da                	mv	a1,s6
    28da:	8552                	mv	a0,s4
    28dc:	3df9                	jal	27ba <printchar>
    28de:	197d                	addi	s2,s2,-1
    28e0:	bf45                	j	2890 <prints+0x8e>

000028e2 <printInt>:
    28e2:	7139                	addi	sp,sp,-64
    28e4:	da26                	sw	s1,52(sp)
    28e6:	d64e                	sw	s3,44(sp)
    28e8:	de06                	sw	ra,60(sp)
    28ea:	dc22                	sw	s0,56(sp)
    28ec:	d84a                	sw	s2,48(sp)
    28ee:	d452                	sw	s4,40(sp)
    28f0:	d256                	sw	s5,36(sp)
    28f2:	d05a                	sw	s6,32(sp)
    28f4:	84ba                	mv	s1,a4
    28f6:	89be                	mv	s3,a5
    28f8:	e19d                	bnez	a1,291e <printInt+0x3c>
    28fa:	03000793          	li	a5,48
    28fe:	4701                	li	a4,0
    2900:	86ce                	mv	a3,s3
    2902:	8626                	mv	a2,s1
    2904:	002c                	addi	a1,sp,8
    2906:	847c                	sh	a5,8(sp)
    2908:	3ded                	jal	2802 <prints>
    290a:	50f2                	lw	ra,60(sp)
    290c:	5462                	lw	s0,56(sp)
    290e:	54d2                	lw	s1,52(sp)
    2910:	5942                	lw	s2,48(sp)
    2912:	59b2                	lw	s3,44(sp)
    2914:	5a22                	lw	s4,40(sp)
    2916:	5a92                	lw	s5,36(sp)
    2918:	5b02                	lw	s6,32(sp)
    291a:	6121                	addi	sp,sp,64
    291c:	8082                	ret
    291e:	892a                	mv	s2,a0
    2920:	8436                	mv	s0,a3
    2922:	8ac2                	mv	s5,a6
    2924:	8b46                	mv	s6,a7
    2926:	ca91                	beqz	a3,293a <printInt+0x58>
    2928:	47a9                	li	a5,10
    292a:	4401                	li	s0,0
    292c:	00f61763          	bne	a2,a5,293a <printInt+0x58>
    2930:	0005d563          	bgez	a1,293a <printInt+0x58>
    2934:	40b005b3          	neg	a1,a1
    2938:	4405                	li	s0,1
    293a:	00010fa3          	sb	zero,31(sp)
    293e:	01f10713          	addi	a4,sp,31
    2942:	46a5                	li	a3,9
    2944:	fc6a8513          	addi	a0,s5,-58 # 3ffc6 <_data_lma+0x3cf62>
    2948:	02c5f7b3          	remu	a5,a1,a2
    294c:	00f6d363          	bge	a3,a5,2952 <printInt+0x70>
    2950:	97aa                	add	a5,a5,a0
    2952:	03078793          	addi	a5,a5,48
    2956:	fef70fa3          	sb	a5,-1(a4)
    295a:	fff70a13          	addi	s4,a4,-1
    295e:	02c5d7b3          	divu	a5,a1,a2
    2962:	04c5f563          	bgeu	a1,a2,29ac <printInt+0xca>
    2966:	c811                	beqz	s0,297a <printInt+0x98>
    2968:	c4a9                	beqz	s1,29b2 <printInt+0xd0>
    296a:	0029f793          	andi	a5,s3,2
    296e:	c3b1                	beqz	a5,29b2 <printInt+0xd0>
    2970:	02d00593          	li	a1,45
    2974:	854a                	mv	a0,s2
    2976:	3591                	jal	27ba <printchar>
    2978:	14fd                	addi	s1,s1,-1
    297a:	0049f793          	andi	a5,s3,4
    297e:	cf99                	beqz	a5,299c <printInt+0xba>
    2980:	06100793          	li	a5,97
    2984:	03000593          	li	a1,48
    2988:	854a                	mv	a0,s2
    298a:	02fa9c63          	bne	s5,a5,29c2 <printInt+0xe0>
    298e:	3535                	jal	27ba <printchar>
    2990:	07800593          	li	a1,120
    2994:	854a                	mv	a0,s2
    2996:	3515                	jal	27ba <printchar>
    2998:	0409                	addi	s0,s0,2
    299a:	14f9                	addi	s1,s1,-2
    299c:	875a                	mv	a4,s6
    299e:	86ce                	mv	a3,s3
    29a0:	8626                	mv	a2,s1
    29a2:	85d2                	mv	a1,s4
    29a4:	854a                	mv	a0,s2
    29a6:	3db1                	jal	2802 <prints>
    29a8:	9522                	add	a0,a0,s0
    29aa:	b785                	j	290a <printInt+0x28>
    29ac:	85be                	mv	a1,a5
    29ae:	8752                	mv	a4,s4
    29b0:	bf61                	j	2948 <printInt+0x66>
    29b2:	02d00793          	li	a5,45
    29b6:	fefa0fa3          	sb	a5,-1(s4)
    29ba:	4401                	li	s0,0
    29bc:	ffe70a13          	addi	s4,a4,-2
    29c0:	bf6d                	j	297a <printInt+0x98>
    29c2:	3be5                	jal	27ba <printchar>
    29c4:	05800593          	li	a1,88
    29c8:	b7f1                	j	2994 <printInt+0xb2>

000029ca <printLongLongInt>:
    29ca:	4501                	li	a0,0
    29cc:	8082                	ret

000029ce <printDouble>:
    29ce:	4501                	li	a0,0
    29d0:	8082                	ret

000029d2 <print>:
    29d2:	7139                	addi	sp,sp,-64
    29d4:	d05a                	sw	s6,32(sp)
    29d6:	6b0d                	lui	s6,0x3
    29d8:	dc22                	sw	s0,56(sp)
    29da:	da26                	sw	s1,52(sp)
    29dc:	d84a                	sw	s2,48(sp)
    29de:	d64e                	sw	s3,44(sp)
    29e0:	d452                	sw	s4,40(sp)
    29e2:	d256                	sw	s5,36(sp)
    29e4:	ce5e                	sw	s7,28(sp)
    29e6:	ca66                	sw	s9,20(sp)
    29e8:	c86a                	sw	s10,16(sp)
    29ea:	de06                	sw	ra,60(sp)
    29ec:	cc62                	sw	s8,24(sp)
    29ee:	89aa                	mv	s3,a0
    29f0:	892e                	mv	s2,a1
    29f2:	8432                	mv	s0,a2
    29f4:	4a01                	li	s4,0
    29f6:	4481                	li	s1,0
    29f8:	02500b93          	li	s7,37
    29fc:	02d00a93          	li	s5,45
    2a00:	4ca5                	li	s9,9
    2a02:	4d29                	li	s10,10
    2a04:	00cb0b13          	addi	s6,s6,12 # 300c <strlen+0x25c>
    2a08:	00090583          	lb	a1,0(s2)
    2a0c:	e58d                	bnez	a1,2a36 <print+0x64>
    2a0e:	00098563          	beqz	s3,2a18 <print+0x46>
    2a12:	4581                	li	a1,0
    2a14:	854e                	mv	a0,s3
    2a16:	3355                	jal	27ba <printchar>
    2a18:	50f2                	lw	ra,60(sp)
    2a1a:	5462                	lw	s0,56(sp)
    2a1c:	5942                	lw	s2,48(sp)
    2a1e:	59b2                	lw	s3,44(sp)
    2a20:	5a22                	lw	s4,40(sp)
    2a22:	5a92                	lw	s5,36(sp)
    2a24:	5b02                	lw	s6,32(sp)
    2a26:	4bf2                	lw	s7,28(sp)
    2a28:	4c62                	lw	s8,24(sp)
    2a2a:	4cd2                	lw	s9,20(sp)
    2a2c:	4d42                	lw	s10,16(sp)
    2a2e:	8526                	mv	a0,s1
    2a30:	54d2                	lw	s1,52(sp)
    2a32:	6121                	addi	sp,sp,64
    2a34:	8082                	ret
    2a36:	01758763          	beq	a1,s7,2a44 <print+0x72>
    2a3a:	854e                	mv	a0,s3
    2a3c:	3bbd                	jal	27ba <printchar>
    2a3e:	0485                	addi	s1,s1,1
    2a40:	0905                	addi	s2,s2,1
    2a42:	b7d9                	j	2a08 <print+0x36>
    2a44:	00190783          	lb	a5,1(s2)
    2a48:	00190c13          	addi	s8,s2,1
    2a4c:	01779963          	bne	a5,s7,2a5e <print+0x8c>
    2a50:	02500593          	li	a1,37
    2a54:	854e                	mv	a0,s3
    2a56:	3395                	jal	27ba <printchar>
    2a58:	0485                	addi	s1,s1,1
    2a5a:	8962                	mv	s2,s8
    2a5c:	b7d5                	j	2a40 <print+0x6e>
    2a5e:	dbc5                	beqz	a5,2a0e <print+0x3c>
    2a60:	03578663          	beq	a5,s5,2a8c <print+0xba>
    2a64:	00facc63          	blt	s5,a5,2a7c <print+0xaa>
    2a68:	02300713          	li	a4,35
    2a6c:	04e78763          	beq	a5,a4,2aba <print+0xe8>
    2a70:	02b00713          	li	a4,43
    2a74:	04e78063          	beq	a5,a4,2ab4 <print+0xe2>
    2a78:	4781                	li	a5,0
    2a7a:	a821                	j	2a92 <print+0xc0>
    2a7c:	03000713          	li	a4,48
    2a80:	fee79ce3          	bne	a5,a4,2a78 <print+0xa6>
    2a84:	00290c13          	addi	s8,s2,2
    2a88:	4789                	li	a5,2
    2a8a:	a021                	j	2a92 <print+0xc0>
    2a8c:	00290c13          	addi	s8,s2,2
    2a90:	4785                	li	a5,1
    2a92:	000c0703          	lb	a4,0(s8)
    2a96:	03570d63          	beq	a4,s5,2ad0 <print+0xfe>
    2a9a:	02eac463          	blt	s5,a4,2ac2 <print+0xf0>
    2a9e:	02300693          	li	a3,35
    2aa2:	02d70a63          	beq	a4,a3,2ad6 <print+0x104>
    2aa6:	02b00693          	li	a3,43
    2aaa:	02d70863          	beq	a4,a3,2ada <print+0x108>
    2aae:	8962                	mv	s2,s8
    2ab0:	4601                	li	a2,0
    2ab2:	a825                	j	2aea <print+0x118>
    2ab4:	00290c13          	addi	s8,s2,2
    2ab8:	b7c1                	j	2a78 <print+0xa6>
    2aba:	00290c13          	addi	s8,s2,2
    2abe:	4791                	li	a5,4
    2ac0:	bfc9                	j	2a92 <print+0xc0>
    2ac2:	03000693          	li	a3,48
    2ac6:	fed714e3          	bne	a4,a3,2aae <print+0xdc>
    2aca:	0027e793          	ori	a5,a5,2
    2ace:	a031                	j	2ada <print+0x108>
    2ad0:	0c05                	addi	s8,s8,1
    2ad2:	4785                	li	a5,1
    2ad4:	bfe9                	j	2aae <print+0xdc>
    2ad6:	0047e793          	ori	a5,a5,4
    2ada:	0c05                	addi	s8,s8,1
    2adc:	bfc9                	j	2aae <print+0xdc>
    2ade:	03a60633          	mul	a2,a2,s10
    2ae2:	60471713          	sext.b	a4,a4
    2ae6:	0905                	addi	s2,s2,1
    2ae8:	963a                	add	a2,a2,a4
    2aea:	00090683          	lb	a3,0(s2)
    2aee:	fd068713          	addi	a4,a3,-48 # 40000fd0 <_eusrstack+0x1ffe0fd0>
    2af2:	0ff77593          	zext.b	a1,a4
    2af6:	febcf4e3          	bgeu	s9,a1,2ade <print+0x10c>
    2afa:	02e00713          	li	a4,46
    2afe:	4599                	li	a1,6
    2b00:	00e69f63          	bne	a3,a4,2b1e <print+0x14c>
    2b04:	0905                	addi	s2,s2,1
    2b06:	4581                	li	a1,0
    2b08:	46a5                	li	a3,9
    2b0a:	4829                	li	a6,10
    2b0c:	00090703          	lb	a4,0(s2)
    2b10:	fd070713          	addi	a4,a4,-48
    2b14:	0ff77513          	zext.b	a0,a4
    2b18:	02a6f963          	bgeu	a3,a0,2b4a <print+0x178>
    2b1c:	8a2e                	mv	s4,a1
    2b1e:	00090683          	lb	a3,0(s2)
    2b22:	06c00713          	li	a4,108
    2b26:	04e68063          	beq	a3,a4,2b66 <print+0x194>
    2b2a:	02d74763          	blt	a4,a3,2b58 <print+0x186>
    2b2e:	06800713          	li	a4,104
    2b32:	06e68b63          	beq	a3,a4,2ba8 <print+0x1d6>
    2b36:	06a00713          	li	a4,106
    2b3a:	06e68e63          	beq	a3,a4,2bb6 <print+0x1e4>
    2b3e:	04c00713          	li	a4,76
    2b42:	06e68a63          	beq	a3,a4,2bb6 <print+0x1e4>
    2b46:	4701                	li	a4,0
    2b48:	a03d                	j	2b76 <print+0x1a4>
    2b4a:	030585b3          	mul	a1,a1,a6
    2b4e:	60471713          	sext.b	a4,a4
    2b52:	0905                	addi	s2,s2,1
    2b54:	95ba                	add	a1,a1,a4
    2b56:	bf5d                	j	2b0c <print+0x13a>
    2b58:	07400713          	li	a4,116
    2b5c:	04e68d63          	beq	a3,a4,2bb6 <print+0x1e4>
    2b60:	07a00713          	li	a4,122
    2b64:	bff9                	j	2b42 <print+0x170>
    2b66:	00190503          	lb	a0,1(s2)
    2b6a:	470d                	li	a4,3
    2b6c:	00d51463          	bne	a0,a3,2b74 <print+0x1a2>
    2b70:	0905                	addi	s2,s2,1
    2b72:	4711                	li	a4,4
    2b74:	0905                	addi	s2,s2,1
    2b76:	00090683          	lb	a3,0(s2)
    2b7a:	06000513          	li	a0,96
    2b7e:	02d55e63          	bge	a0,a3,2bba <print+0x1e8>
    2b82:	07800513          	li	a0,120
    2b86:	ead54de3          	blt	a0,a3,2a40 <print+0x6e>
    2b8a:	06200513          	li	a0,98
    2b8e:	ead559e3          	bge	a0,a3,2a40 <print+0x6e>
    2b92:	f9d68693          	addi	a3,a3,-99
    2b96:	0ff6f693          	zext.b	a3,a3
    2b9a:	4555                	li	a0,21
    2b9c:	ead562e3          	bltu	a0,a3,2a40 <print+0x6e>
    2ba0:	2166c6b3          	sh2add	a3,a3,s6
    2ba4:	4294                	lw	a3,0(a3)
    2ba6:	8682                	jr	a3
    2ba8:	00190503          	lb	a0,1(s2)
    2bac:	4701                	li	a4,0
    2bae:	fcd514e3          	bne	a0,a3,2b76 <print+0x1a4>
    2bb2:	0909                	addi	s2,s2,2
    2bb4:	b7c9                	j	2b76 <print+0x1a4>
    2bb6:	0905                	addi	s2,s2,1
    2bb8:	b779                	j	2b46 <print+0x174>
    2bba:	04700513          	li	a0,71
    2bbe:	02d54463          	blt	a0,a3,2be6 <print+0x214>
    2bc2:	04400713          	li	a4,68
    2bc6:	12d74f63          	blt	a4,a3,2d04 <print+0x332>
    2bca:	04300713          	li	a4,67
    2bce:	e6e699e3          	bne	a3,a4,2a40 <print+0x6e>
    2bd2:	4018                	lw	a4,0(s0)
    2bd4:	00440c13          	addi	s8,s0,4
    2bd8:	000106a3          	sb	zero,13(sp)
    2bdc:	8658                	sb	a4,12(sp)
    2bde:	86be                	mv	a3,a5
    2be0:	4701                	li	a4,0
    2be2:	006c                	addi	a1,sp,12
    2be4:	a099                	j	2c2a <print+0x258>
    2be6:	05800593          	li	a1,88
    2bea:	04100813          	li	a6,65
    2bee:	e4b699e3          	bne	a3,a1,2a40 <print+0x6e>
    2bf2:	4691                	li	a3,4
    2bf4:	08d71063          	bne	a4,a3,2c74 <print+0x2a2>
    2bf8:	00740593          	addi	a1,s0,7
    2bfc:	99e1                	andi	a1,a1,-8
    2bfe:	00858413          	addi	s0,a1,8
    2c02:	88c2                	mv	a7,a6
    2c04:	883e                	mv	a6,a5
    2c06:	4701                	li	a4,0
    2c08:	87b2                	mv	a5,a2
    2c0a:	46c1                	li	a3,16
    2c0c:	41d0                	lw	a2,4(a1)
    2c0e:	418c                	lw	a1,0(a1)
    2c10:	854e                	mv	a0,s3
    2c12:	3b65                	jal	29ca <printLongLongInt>
    2c14:	94aa                	add	s1,s1,a0
    2c16:	b52d                	j	2a40 <print+0x6e>
    2c18:	400c                	lw	a1,0(s0)
    2c1a:	00440c13          	addi	s8,s0,4
    2c1e:	e581                	bnez	a1,2c26 <print+0x254>
    2c20:	658d                	lui	a1,0x3
    2c22:	00458593          	addi	a1,a1,4 # 3004 <strlen+0x254>
    2c26:	8752                	mv	a4,s4
    2c28:	86be                	mv	a3,a5
    2c2a:	854e                	mv	a0,s3
    2c2c:	bd7ff0ef          	jal	ra,2802 <prints>
    2c30:	a825                	j	2c68 <print+0x296>
    2c32:	4691                	li	a3,4
    2c34:	00d71e63          	bne	a4,a3,2c50 <print+0x27e>
    2c38:	00740593          	addi	a1,s0,7
    2c3c:	99e1                	andi	a1,a1,-8
    2c3e:	883e                	mv	a6,a5
    2c40:	00858413          	addi	s0,a1,8
    2c44:	06100893          	li	a7,97
    2c48:	87b2                	mv	a5,a2
    2c4a:	4705                	li	a4,1
    2c4c:	46a9                	li	a3,10
    2c4e:	bf7d                	j	2c0c <print+0x23a>
    2c50:	00440c13          	addi	s8,s0,4
    2c54:	88d2                	mv	a7,s4
    2c56:	06100813          	li	a6,97
    2c5a:	8732                	mv	a4,a2
    2c5c:	4685                	li	a3,1
    2c5e:	4629                	li	a2,10
    2c60:	400c                	lw	a1,0(s0)
    2c62:	854e                	mv	a0,s3
    2c64:	c7fff0ef          	jal	ra,28e2 <printInt>
    2c68:	94aa                	add	s1,s1,a0
    2c6a:	8462                	mv	s0,s8
    2c6c:	bbd1                	j	2a40 <print+0x6e>
    2c6e:	06100813          	li	a6,97
    2c72:	b741                	j	2bf2 <print+0x220>
    2c74:	00440c13          	addi	s8,s0,4
    2c78:	88d2                	mv	a7,s4
    2c7a:	8732                	mv	a4,a2
    2c7c:	4681                	li	a3,0
    2c7e:	4641                	li	a2,16
    2c80:	b7c5                	j	2c60 <print+0x28e>
    2c82:	4691                	li	a3,4
    2c84:	00d71d63          	bne	a4,a3,2c9e <print+0x2cc>
    2c88:	00740593          	addi	a1,s0,7
    2c8c:	99e1                	andi	a1,a1,-8
    2c8e:	883e                	mv	a6,a5
    2c90:	00858413          	addi	s0,a1,8
    2c94:	06100893          	li	a7,97
    2c98:	87b2                	mv	a5,a2
    2c9a:	4701                	li	a4,0
    2c9c:	bf45                	j	2c4c <print+0x27a>
    2c9e:	00440c13          	addi	s8,s0,4
    2ca2:	88d2                	mv	a7,s4
    2ca4:	06100813          	li	a6,97
    2ca8:	8732                	mv	a4,a2
    2caa:	4681                	li	a3,0
    2cac:	bf4d                	j	2c5e <print+0x28c>
    2cae:	4691                	li	a3,4
    2cb0:	0047e793          	ori	a5,a5,4
    2cb4:	00d71a63          	bne	a4,a3,2cc8 <print+0x2f6>
    2cb8:	00740593          	addi	a1,s0,7
    2cbc:	99e1                	andi	a1,a1,-8
    2cbe:	00858413          	addi	s0,a1,8
    2cc2:	06100893          	li	a7,97
    2cc6:	bf3d                	j	2c04 <print+0x232>
    2cc8:	00440c13          	addi	s8,s0,4
    2ccc:	88d2                	mv	a7,s4
    2cce:	06100813          	li	a6,97
    2cd2:	b765                	j	2c7a <print+0x2a8>
    2cd4:	4691                	li	a3,4
    2cd6:	00d71e63          	bne	a4,a3,2cf2 <print+0x320>
    2cda:	00740593          	addi	a1,s0,7
    2cde:	99e1                	andi	a1,a1,-8
    2ce0:	883e                	mv	a6,a5
    2ce2:	00858413          	addi	s0,a1,8
    2ce6:	06100893          	li	a7,97
    2cea:	87b2                	mv	a5,a2
    2cec:	4701                	li	a4,0
    2cee:	46a1                	li	a3,8
    2cf0:	bf31                	j	2c0c <print+0x23a>
    2cf2:	8732                	mv	a4,a2
    2cf4:	00440c13          	addi	s8,s0,4
    2cf8:	88d2                	mv	a7,s4
    2cfa:	06100813          	li	a6,97
    2cfe:	4681                	li	a3,0
    2d00:	4621                	li	a2,8
    2d02:	bfb9                	j	2c60 <print+0x28e>
    2d04:	04100893          	li	a7,65
    2d08:	00740513          	addi	a0,s0,7
    2d0c:	9961                	andi	a0,a0,-8
    2d0e:	883e                	mv	a6,a5
    2d10:	8732                	mv	a4,a2
    2d12:	87ae                	mv	a5,a1
    2d14:	4150                	lw	a2,4(a0)
    2d16:	410c                	lw	a1,0(a0)
    2d18:	00850413          	addi	s0,a0,8
    2d1c:	46a9                	li	a3,10
    2d1e:	854e                	mv	a0,s3
    2d20:	cafff0ef          	jal	ra,29ce <printDouble>
    2d24:	bdc5                	j	2c14 <print+0x242>
    2d26:	06100893          	li	a7,97
    2d2a:	bff9                	j	2d08 <print+0x336>

00002d2c <printf>:
    2d2c:	7139                	addi	sp,sp,-64
    2d2e:	d22e                	sw	a1,36(sp)
    2d30:	d432                	sw	a2,40(sp)
    2d32:	85aa                	mv	a1,a0
    2d34:	1050                	addi	a2,sp,36
    2d36:	4501                	li	a0,0
    2d38:	ce06                	sw	ra,28(sp)
    2d3a:	d636                	sw	a3,44(sp)
    2d3c:	d83a                	sw	a4,48(sp)
    2d3e:	da3e                	sw	a5,52(sp)
    2d40:	dc42                	sw	a6,56(sp)
    2d42:	de46                	sw	a7,60(sp)
    2d44:	c632                	sw	a2,12(sp)
    2d46:	c8dff0ef          	jal	ra,29d2 <print>
    2d4a:	40f2                	lw	ra,28(sp)
    2d4c:	6121                	addi	sp,sp,64
    2d4e:	8082                	ret

00002d50 <puts>:
    2d50:	1101                	addi	sp,sp,-32
    2d52:	cc22                	sw	s0,24(sp)
    2d54:	ca26                	sw	s1,20(sp)
    2d56:	ce06                	sw	ra,28(sp)
    2d58:	00050783          	lb	a5,0(a0)
    2d5c:	84aa                	mv	s1,a0
    2d5e:	4401                	li	s0,0
    2d60:	87dc                	sb	a5,15(sp)
    2d62:	0405                	addi	s0,s0,1
    2d64:	ef99                	bnez	a5,2d82 <puts+0x32>
    2d66:	47a9                	li	a5,10
    2d68:	00f10593          	addi	a1,sp,15
    2d6c:	4605                	li	a2,1
    2d6e:	4501                	li	a0,0
    2d70:	87dc                	sb	a5,15(sp)
    2d72:	9bfff0ef          	jal	ra,2730 <_write>
    2d76:	40f2                	lw	ra,28(sp)
    2d78:	8522                	mv	a0,s0
    2d7a:	4462                	lw	s0,24(sp)
    2d7c:	44d2                	lw	s1,20(sp)
    2d7e:	6105                	addi	sp,sp,32
    2d80:	8082                	ret
    2d82:	4605                	li	a2,1
    2d84:	00f10593          	addi	a1,sp,15
    2d88:	4501                	li	a0,0
    2d8a:	9a7ff0ef          	jal	ra,2730 <_write>
    2d8e:	008487b3          	add	a5,s1,s0
    2d92:	00078783          	lb	a5,0(a5)
    2d96:	b7e9                	j	2d60 <puts+0x10>

00002d98 <memchr>:
    2d98:	0ff5f593          	zext.b	a1,a1
    2d9c:	962a                	add	a2,a2,a0
    2d9e:	00c51463          	bne	a0,a2,2da6 <memchr+0xe>
    2da2:	4501                	li	a0,0
    2da4:	8082                	ret
    2da6:	211c                	lbu	a5,0(a0)
    2da8:	feb78ee3          	beq	a5,a1,2da4 <memchr+0xc>
    2dac:	0505                	addi	a0,a0,1
    2dae:	bfc5                	j	2d9e <memchr+0x6>

00002db0 <strlen>:
    2db0:	87aa                	mv	a5,a0
    2db2:	2398                	lbu	a4,0(a5)
    2db4:	0785                	addi	a5,a5,1
    2db6:	ff75                	bnez	a4,2db2 <strlen+0x2>
    2db8:	40a78533          	sub	a0,a5,a0
    2dbc:	157d                	addi	a0,a0,-1
    2dbe:	8082                	ret
    2dc0:	6e45                	lui	t3,0x11
    2dc2:	6d75                	lui	s10,0x1d
    2dc4:	0d3a                	slli	s10,s10,0xe
    2dc6:	0000                	unimp
    2dc8:	3025                	jal	25f0 <HUB_GetClassDevDescr+0x20>
    2dca:	7832                	.2byte	0x7832
    2dcc:	0020                	addi	s0,sp,8
    2dce:	0000                	unimp
    2dd0:	20746553          	.4byte	0x20746553
    2dd4:	6544                	.2byte	0x6544
    2dd6:	4176                	lw	sp,92(sp)
    2dd8:	6464                	.2byte	0x6464
    2dda:	3a72                	lhu	a2,54(a2)
    2ddc:	0020                	addi	s0,sp,8
    2dde:	0000                	unimp
    2de0:	7245                	lui	tp,0xffff1
    2de2:	2872                	lhu	a2,22(s0)
    2de4:	3025                	jal	260c <HUB_GetClassDevDescr+0x3c>
    2de6:	7832                	.2byte	0x7832
    2de8:	0d29                	addi	s10,s10,10 # 1d00a <_data_lma+0x19fa6>
    2dea:	000a                	c.slli	zero,0x2
    2dec:	000d4b4f          	.4byte	0xd4b4f
    2df0:	20746547          	.4byte	0x20746547
    2df4:	44676643          	.4byte	0x44676643
    2df8:	7365                	lui	t1,0xffff9
    2dfa:	00203a63          	.4byte	0x203a63
    2dfe:	0000                	unimp
    2e00:	6544                	.2byte	0x6544
    2e02:	5476                	lw	s0,124(sp)
    2e04:	7079                	c.lui	zero,0xffffe
    2e06:	3a65                	jal	27be <printchar+0x4>
    2e08:	2520                	lbu	s0,10(a0)
    2e0a:	3230                	lbu	a2,3(a2)
    2e0c:	0d78                	addi	a4,sp,668
    2e0e:	000a                	c.slli	zero,0x2
    2e10:	20746553          	.4byte	0x20746553
    2e14:	3a676643          	.4byte	0x3a676643
    2e18:	0020                	addi	s0,sp,8
    2e1a:	0000                	unimp
    2e1c:	20746547          	.4byte	0x20746547
    2e20:	6544                	.2byte	0x6544
    2e22:	4476                	lw	s0,92(sp)
    2e24:	7365                	lui	t1,0xffff9
    2e26:	00203a63          	.4byte	0x203a63
    2e2a:	0000                	unimp
    2e2c:	20746547          	.4byte	0x20746547
    2e30:	6e49                	lui	t3,0x12
    2e32:	6574                	.2byte	0x6574
    2e34:	6672                	.2byte	0x6672
    2e36:	6361                	lui	t1,0x18
    2e38:	2565                	jal	34e0 <_data_lma+0x47c>
    2e3a:	2078                	lbu	a4,6(s0)
    2e3c:	6552                	.2byte	0x6552
    2e3e:	4470                	lw	a2,76(s0)
    2e40:	7365                	lui	t1,0xffff9
    2e42:	00203a63          	.4byte	0x203a63
    2e46:	0000                	unimp
    2e48:	6e45                	lui	t3,0x11
    2e4a:	6d75                	lui	s10,0x1d
    2e4c:	4820                	lw	s0,80(s0)
    2e4e:	6275                	lui	tp,0x1d
    2e50:	0d3a                	slli	s10,s10,0xe
    2e52:	0000                	unimp
    2e54:	6e41                	lui	t3,0x10
    2e56:	6c61                	lui	s8,0x18
    2e58:	7a79                	lui	s4,0xffffe
    2e5a:	2065                	jal	2f02 <strlen+0x152>
    2e5c:	44676643          	.4byte	0x44676643
    2e60:	7365                	lui	t1,0xffff9
    2e62:	00203a63          	.4byte	0x203a63
    2e66:	0000                	unimp
    2e68:	20746547          	.4byte	0x20746547
    2e6c:	69727453          	.4byte	0x69727453
    2e70:	676e                	.2byte	0x676e
    2e72:	6544                	.2byte	0x6544
    2e74:	3a346373          	csrrsi	t1,pmpcfg3,8
    2e78:	0020                	addi	s0,sp,8
    2e7a:	0000                	unimp
    2e7c:	20746547          	.4byte	0x20746547
    2e80:	69727453          	.4byte	0x69727453
    2e84:	676e                	.2byte	0x676e
    2e86:	6544                	.2byte	0x6544
    2e88:	3a316373          	csrrsi	t1,pmpcfg3,2
    2e8c:	0020                	addi	s0,sp,8
    2e8e:	0000                	unimp
    2e90:	20746547          	.4byte	0x20746547
    2e94:	69727453          	.4byte	0x69727453
    2e98:	676e                	.2byte	0x676e
    2e9a:	6544                	.2byte	0x6544
    2e9c:	3a326373          	csrrsi	t1,pmpcfg3,4
    2ea0:	0020                	addi	s0,sp,8
    2ea2:	0000                	unimp
    2ea4:	20746547          	.4byte	0x20746547
    2ea8:	69727453          	.4byte	0x69727453
    2eac:	676e                	.2byte	0x676e
    2eae:	6544                	.2byte	0x6544
    2eb0:	3a336373          	csrrsi	t1,pmpcfg3,6
    2eb4:	0020                	addi	s0,sp,8
    2eb6:	0000                	unimp
    2eb8:	20746547          	.4byte	0x20746547
    2ebc:	7548                	.2byte	0x7548
    2ebe:	2062                	lhu	s0,6(s0)
    2ec0:	6544                	.2byte	0x6544
    2ec2:	203a6373          	csrrsi	t1,0x203,20
    2ec6:	0000                	unimp
    2ec8:	6f52                	.2byte	0x6f52
    2eca:	7548746f          	jal	s0,8a61e <_data_lma+0x875ba>
    2ece:	4462                	lw	s0,24(sp)
    2ed0:	7665                	lui	a2,0xffff9
    2ed2:	3025205b          	.4byte	0x3025205b
    2ed6:	7832                	.2byte	0x7832
    2ed8:	5d20                	lw	s0,120(a0)
    2eda:	622e                	.2byte	0x622e
    2edc:	6f50                	.2byte	0x6f50
    2ede:	7472                	.2byte	0x7472
    2ee0:	754e                	.2byte	0x754e
    2ee2:	3a6d                	jal	289c <prints+0x9a>
    2ee4:	2520                	lbu	s0,10(a0)
    2ee6:	3230                	lbu	a2,3(a2)
    2ee8:	0d78                	addi	a4,sp,668
    2eea:	000a                	c.slli	zero,0x2
    2eec:	6e45                	lui	t3,0x11
    2eee:	6d75                	lui	s10,0x1d
    2ef0:	4820                	lw	s0,80(s0)
    2ef2:	6469                	lui	s0,0x1a
    2ef4:	0d3a                	slli	s10,s10,0xe
    2ef6:	0000                	unimp
    2ef8:	5355                	li	t1,-11
    2efa:	2042                	lhu	s0,4(s0)
    2efc:	6f50                	.2byte	0x6f50
    2efe:	7472                	.2byte	0x7472
    2f00:	7825                	lui	a6,0xfffe9
    2f02:	4420                	lw	s0,72(s0)
    2f04:	7665                	lui	a2,0xffff9
    2f06:	4920                	lw	s0,80(a0)
    2f08:	2e6e                	lhu	a1,30(a2)
    2f0a:	0a0d                	addi	s4,s4,3 # ffffe003 <_eusrstack+0xdffde003>
    2f0c:	0000                	unimp
    2f0e:	0000                	unimp
    2f10:	6f52                	.2byte	0x6f52
    2f12:	4420746f          	jal	s0,a354 <_data_lma+0x72f0>
    2f16:	7665                	lui	a2,0xffff9
    2f18:	6369                	lui	t1,0x1a
    2f1a:	2065                	jal	2fc2 <strlen+0x212>
    2f1c:	7349                	lui	t1,0xffff2
    2f1e:	4820                	lw	s0,80(s0)
    2f20:	4449                	li	s0,18
    2f22:	202e                	lhu	a1,2(s0)
    2f24:	0000                	unimp
    2f26:	0000                	unimp
    2f28:	7546                	.2byte	0x7546
    2f2a:	7472                	.2byte	0x7472
    2f2c:	6568                	.2byte	0x6568
    2f2e:	2072                	lhu	a2,6(s0)
    2f30:	6e45                	lui	t3,0x11
    2f32:	6d75                	lui	s10,0x1d
    2f34:	5220                	lw	s0,96(a2)
    2f36:	7365                	lui	t1,0xffff9
    2f38:	6c75                	lui	s8,0x1d
    2f3a:	3a74                	lbu	a3,23(a2)
    2f3c:	0020                	addi	s0,sp,8
    2f3e:	0000                	unimp
    2f40:	6f52                	.2byte	0x6f52
    2f42:	4420746f          	jal	s0,a384 <_data_lma+0x7320>
    2f46:	7665                	lui	a2,0xffff9
    2f48:	6369                	lui	t1,0x1a
    2f4a:	2065                	jal	2ff2 <strlen+0x242>
    2f4c:	7349                	lui	t1,0xffff2
    2f4e:	4820                	lw	s0,80(s0)
    2f50:	4255                	li	tp,21
    2f52:	202e                	lhu	a1,2(s0)
    2f54:	0000                	unimp
    2f56:	0000                	unimp
    2f58:	6f52                	.2byte	0x6f52
    2f5a:	4420746f          	jal	s0,a39c <_data_lma+0x7338>
    2f5e:	7665                	lui	a2,0xffff9
    2f60:	6369                	lui	t1,0x1a
    2f62:	2065                	jal	300a <strlen+0x25a>
    2f64:	7349                	lui	t1,0xffff2
    2f66:	0020                	addi	s0,sp,8
    2f68:	726f7453          	.4byte	0x726f7453
    2f6c:	6761                	lui	a4,0x18
    2f6e:	2e65                	jal	3326 <_data_lma+0x2c2>
    2f70:	0020                	addi	s0,sp,8
    2f72:	0000                	unimp
    2f74:	7250                	.2byte	0x7250
    2f76:	6e69                	lui	t3,0x1a
    2f78:	6574                	.2byte	0x6574
    2f7a:	2e72                	lhu	a2,30(a2)
    2f7c:	0020                	addi	s0,sp,8
    2f7e:	0000                	unimp
    2f80:	6e55                	lui	t3,0x15
    2f82:	776f6e6b          	.4byte	0x776f6e6b
    2f86:	2e6e                	lhu	a1,30(a2)
    2f88:	0020                	addi	s0,sp,8
    2f8a:	0000                	unimp
    2f8c:	6e45                	lui	t3,0x11
    2f8e:	2064                	lbu	s1,6(s0)
    2f90:	6e45                	lui	t3,0x11
    2f92:	6d75                	lui	s10,0x1d
    2f94:	0d2e                	slli	s10,s10,0xb
    2f96:	0000                	unimp
    2f98:	6e45                	lui	t3,0x11
    2f9a:	6d75                	lui	s10,0x1d
    2f9c:	4620                	lw	s0,72(a2)
    2f9e:	6961                	lui	s2,0x18
    2fa0:	206c                	lbu	a1,6(s0)
    2fa2:	68746977          	.4byte	0x68746977
    2fa6:	4520                	lw	s0,72(a0)
    2fa8:	7272                	.2byte	0x7272
    2faa:	4320726f          	jal	tp,a3dc <_data_lma+0x7378>
    2fae:	3a65646f          	jal	s0,59354 <_data_lma+0x562f0>
    2fb2:	7825                	lui	a6,0xfffe9
    2fb4:	0a0d                	addi	s4,s4,3
    2fb6:	0000                	unimp
    2fb8:	5355                	li	t1,-11
    2fba:	2042                	lhu	s0,4(s0)
    2fbc:	6f50                	.2byte	0x6f50
    2fbe:	7472                	.2byte	0x7472
    2fc0:	7825                	lui	a6,0xfffe9
    2fc2:	4420                	lw	s0,72(s0)
    2fc4:	7665                	lui	a2,0xffff9
    2fc6:	4f20                	lw	s0,88(a4)
    2fc8:	7475                	lui	s0,0xffffd
    2fca:	0d2e                	slli	s10,s10,0xb
    2fcc:	000a                	c.slli	zero,0x2
    2fce:	0000                	unimp
    2fd0:	6241                	lui	tp,0x10
    2fd2:	6f6e                	.2byte	0x6f6e
    2fd4:	6d72                	.2byte	0x6d72
    2fd6:	6c61                	lui	s8,0x18
    2fd8:	000d                	c.nop	3
    2fda:	0000                	unimp
    2fdc:	5355                	li	t1,-11
    2fde:	4842                	lw	a6,16(sp)
    2fe0:	6f482053          	.4byte	0x6f482053
    2fe4:	49207473          	csrrci	s0,0x492,0
    2fe8:	696e                	.2byte	0x696e
    2fea:	0d74                	addi	a3,sp,668
    2fec:	0000                	unimp
    2fee:	0000                	unimp
    2ff0:	263e                	lhu	a5,10(a2)
    2ff2:	0000                	unimp
    2ff4:	2656                	lhu	a3,12(a2)
    2ff6:	0000                	unimp
    2ff8:	267a                	lhu	a4,14(a2)
    2ffa:	0000                	unimp
    2ffc:	2684                	lbu	s1,8(a3)
    2ffe:	0000                	unimp
    3000:	269a                	lhu	a4,8(a3)
    3002:	0000                	unimp
    3004:	6e28                	.2byte	0x6e28
    3006:	6c75                	lui	s8,0x1d
    3008:	296c                	lbu	a1,22(a0)
    300a:	0000                	unimp
    300c:	2bd2                	lhu	a2,20(a5)
    300e:	0000                	unimp
    3010:	2c32                	lhu	a2,26(s0)
    3012:	0000                	unimp
    3014:	2d26                	lhu	s1,26(a0)
    3016:	0000                	unimp
    3018:	2d26                	lhu	s1,26(a0)
    301a:	0000                	unimp
    301c:	2d26                	lhu	s1,26(a0)
    301e:	0000                	unimp
    3020:	2a40                	lbu	s0,20(a2)
    3022:	0000                	unimp
    3024:	2a40                	lbu	s0,20(a2)
    3026:	0000                	unimp
    3028:	2a40                	lbu	s0,20(a2)
    302a:	0000                	unimp
    302c:	2a40                	lbu	s0,20(a2)
    302e:	0000                	unimp
    3030:	2a40                	lbu	s0,20(a2)
    3032:	0000                	unimp
    3034:	2a40                	lbu	s0,20(a2)
    3036:	0000                	unimp
    3038:	2a40                	lbu	s0,20(a2)
    303a:	0000                	unimp
    303c:	2cd4                	lbu	a3,28(s1)
    303e:	0000                	unimp
    3040:	2cae                	lhu	a1,26(s1)
    3042:	0000                	unimp
    3044:	2a40                	lbu	s0,20(a2)
    3046:	0000                	unimp
    3048:	2a40                	lbu	s0,20(a2)
    304a:	0000                	unimp
    304c:	2c18                	lbu	a4,24(s0)
    304e:	0000                	unimp
    3050:	2a40                	lbu	s0,20(a2)
    3052:	0000                	unimp
    3054:	2c82                	lhu	s0,24(s1)
    3056:	0000                	unimp
    3058:	2a40                	lbu	s0,20(a2)
    305a:	0000                	unimp
    305c:	2a40                	lbu	s0,20(a2)
    305e:	0000                	unimp
    3060:	2c6e                	lhu	a1,30(s0)
	...
